(dp1
S''
S'tcam'
p2
sS'bapi'
p3
S'business application programming interface'
p4
sS'h.264'
p5
S'mpeg-4 avc'
p6
sS'fdcc'
p7
S'federal desktop core configuration'
p8
sS'human-computer interaction'
p9
S'hci'
p10
sS'keyphone'
p11
S'k/p or key station'
p12
sS'negp'
p13
S'national egovernance plan'
p14
sS'vldb'
p15
S'very large database'
p16
sS'i/o virtualization'
p17
S'iov'
p18
sS'otp'
p19
S'one-time password'
p20
sS'gb'
p21
S'gigabyte'
p22
sS'java server page'
p23
S'jsp'
p24
sS'three dimensions or three-dimensional'
p25
S'3-d'
p26
sS'sap rds'
p27
S'sap rapid deployment solutions'
p28
sS'handie talkie'
p29
S'ht, walkie talkie, handheld'
p30
sS'gl'
p31
S'general ledger'
p32
sS'osd'
p33
S'on-screen display'
p34
sS'nas enclosure'
p35
S'network-attached storage enclosure'
p36
sS'abhenry'
p37
S'abh'
p38
sS'gbic'
p39
S'gigabit interface converter'
p40
sS'hard disk drive form factor'
p41
S'hdd form factor'
p42
sS'hangup'
p43
S'or hang'
p44
sS'calorie'
p45
S'cal'
p46
sS'information superhighway'
p47
S'infobahn'
p48
sS'xenmobile device manager'
p49
S'xdm'
p50
sS'aup'
p51
S'acceptable use policy'
p52
sS'unit of pressure or stress'
p53
S'pascal'
p54
sS'jumpstart our business startups act'
p55
S'jobs act'
p56
sS'bourne again shell'
p57
S'bash'
p58
sS'high definition compatible digital'
p59
S'hdcd'
p60
sS'email address'
p61
S'eddress'
p62
sS'far'
p63
S'federal acquisition regulation'
p64
sS'favorite icon'
p65
S'favicon'
p66
sS'faq'
p67
S'frequently-asked questions'
p68
sS'messaging application program interface'
p69
S'mapi'
p70
sS'ultra dma'
p71
S'udma or ultra dma/33'
p72
sS'time division multiple access'
p73
S'tdma'
p74
sS'mps'
p75
S'managed print services'
p76
sS'uml'
p77
S'unified modeling language'
p78
sS'very high density cable interconnect'
p79
S'vhdci'
p80
sS'java data objects'
p81
S'jdo'
p82
sS'cmm'
p83
S'capability maturity model'
p84
sS'umts'
p85
S'universal mobile telecommunications system'
p86
sS'transmission'
p87
S'satellite'
p88
sS'fha'
p89
S'federal health architecture'
p90
sS'vcap'
p91
S'vmware certified advanced professional'
p92
sS'.net 3.0'
p93
S'winfx'
p94
sS't1'
p95
S't-1'
p96
sS'race'
p97
S'rapid access computing environment'
p98
sS'uidai'
p99
S'unique identification authority of india'
p100
sS'ups'
p101
S'uninterruptible power supply'
p102
sS'obfuscation'
p103
S'obfu'
p104
sS'row address strobe'
p105
S'ras'
p106
sS'odx'
p107
S'offloaded data transfer'
p108
sS'haas'
p109
S'hardware as a service'
p110
sS'cfd'
p111
S'computational fluid dynamics'
p112
sS'venice project'
p113
S'joost'
p114
sS'uncloud'
p115
S'de-cloud'
p116
sS'yacc'
p117
S'yet another compiler compiler'
p118
sS'vacuum tube'
p119
S'vt, electron tube or valve'
p120
sS'd-vhs'
p121
S'digital video home system'
p122
sS'fhie'
p123
S'federal health information exchange'
p124
sS'backward mapping'
p125
S'inverse mapping or screen order'
p126
sS'bdd'
p127
S'behavior-driven development'
p128
sS'1:1 marketing'
p129
S'one-to-one-marketing'
p130
sS'high-bandwidth digital content protection'
p131
S'hdcp'
p132
sS'java runtime environment'
p133
S'jre'
p134
sS'mainframe'
p135
S'big iron'
p136
sS'x window system'
p137
S'x or xwindows'
p138
sS'keystroke id'
p139
S'keystroke identification'
p140
sS's/pdif'
p141
S'sony/philips digital interface'
p142
sS'x-engineering'
p143
S'cross-engineering'
p144
sS'answers'
p145
S'believe it or not'
p146
sS'layer two tunneling protocol'
p147
S'l2tp'
p148
sS'fips'
p149
S'federal information processing standards'
p150
sS'mes'
p151
S'manufacturing execution system'
p152
sS'interior gateway protocol'
p153
S'igp'
p154
sS'wais'
p155
S'wide area information servers'
p156
sS'b2e'
p157
S'business2employee or business-to-employee'
p158
sS'tdd'
p159
S'telecommunications display device'
p160
sS'b2c'
p161
S'business2consumer or business-to-consumer'
p162
sS'b2b'
p163
S'business-to-business'
p164
sS'xml query language'
p165
S'xql'
p166
sS'jax-rpc'
p167
S'java api for xml-based rpc'
p168
sS'q signaling'
p169
S'qsig'
p170
sS'xam'
p171
S'extensible access method'
p172
sS'jax-ws'
p173
S'java api for xml web services'
p174
sS'rambus dynamic random access memory'
p175
S'rdram'
p176
sS'extensible user-interface language'
p177
S'xul'
p178
sS'sales-qualified lead'
p179
S'sql'
p180
sS'bol'
p181
S'beginning of life'
p182
sS'xdma'
p183
S'xing distributed media architecture'
p184
sS'rdm'
p185
S'raw device mapping'
p186
sS'keyboard wedge'
p187
S'kbw'
p188
sS'maintenance management information system'
p189
S'mmis'
p190
sS'absiemens'
p191
S'abs'
p192
sS'40gbe'
p193
S'40 gigabit ethernet'
p194
sS'java cryptography extension'
p195
S'jce'
p196
sS'iana'
p197
S'internet assigned numbers authority'
p198
sS'local exchange carrier'
p199
S'lec'
p200
sS'vim'
p201
S'vendor independent messaging'
p202
sS'transmission control protocol'
p203
S'tcp'
p204
sS'vml'
p205
S'vector markup language'
p206
sS'vc'
p207
S'venture capital'
p208
sS'ha storage'
p209
S'high-availability storage'
p210
sS'bri'
p211
S'basic rate interface'
p212
sS'umls'
p213
S'unified medical language system'
p214
sS'rack server'
p215
S'rack-mounted server'
p216
sS'graphics interchange format'
p217
S'gif'
p218
sS'gaap'
p219
S'generally accepted accounting principles'
p220
sS'10 gigabit ethernet'
p221
S'10 gbe'
p222
sS'javascript object notation'
p223
S'json'
p224
sS'icm file'
p225
S'image color matching file'
p226
sS'usn'
p227
S'update sequence number'
p228
sS'mss'
p229
S'managed security services'
p230
sS'call failure rate'
p231
S'cfr'
p232
sS'msp'
p233
S'management service provider'
p234
sS'amazon simple email service'
p235
S'amazon ses'
p236
sS'integrated drive electronics'
p237
S'ide'
p238
sS"ockham's razor"
p239
S"occam's razor"
p240
sS'usp'
p241
S'unique selling point'
p242
sS'large account reseller'
p243
S'lar'
p244
sS'um server'
p245
S'unified messaging server'
p246
sS'key performance indicator'
p247
S'kpi'
p248
sS'tdss or alureon'
p249
S'tdl-4'
p250
sS'x-on/x-off or xon/xoff'
p251
S'xon/xoff'
p252
sS'frequency division multiple access'
p253
S'fdma'
p254
sS'incumbent local exchange carrier'
p255
S'ilec'
p256
sS'xaml'
p257
S'extensible application markup language'
p258
sS'tcl/tk'
p259
S'tool command language'
p260
sS'non-broadcast multiple access'
p261
S'nbma'
p262
sS'xmt'
p263
S'extensible mpeg-4 textual'
p264
sS'y2k'
p265
S'year 2000'
p266
sS'backward compatible'
p267
S'backward compatibility'
p268
sS'bikeshedding'
p269
S"parkinson's law of triviality"
p270
sS'p4p'
p271
S'proactive provider participation for p2p'
p272
sS'amazon simple notification service'
p273
S'amazon sns'
p274
sS'call admission control'
p275
S'cac'
p276
sS'access control facility'
p277
S'acf2 or ca-acf2'
p278
sS'ibm'
p279
S'international business machines'
p280
sS'inline frame'
p281
S'iframe'
p282
sS'ac-3'
p283
S'dolby digital'
p284
sS'uhdv'
p285
S'ultra high definition video'
p286
sS'page description language'
p287
S'pdl'
p288
sS'ad forest'
p289
S'active directory forest'
p290
sS'cae'
p291
S'computer-aided engineering'
p292
sS'cad'
p293
S'computer-aided design'
p294
sS'xfdl'
p295
S'extensible forms description language'
p296
sS'tar'
p297
S'technology-assisted review'
p298
sS'u.s. food and drug administration'
p299
S'fda'
p300
sS'idaas'
p301
S'identity as a service'
p302
sS'vda'
p303
S'virtual desktop access'
p304
sS'w-cdma'
p305
S'wideband code-division multiple access'
p306
sS'zrtp'
p307
S'zimmermann real-time transport protocol'
p308
sS'ad tree'
p309
S'active directory tree'
p310
sS'generation f'
p311
S'generation facebook'
p312
sS'object storage device'
p313
S'osd'
p314
sS'canary testing'
p315
S'canary'
p316
sS'abstract window toolkit'
p317
S'awt'
p318
sS'offset lithography'
p319
S'offset printing'
p320
sS'yang'
p321
S'data modeling language'
p322
sS'electronic retailing'
p323
S'e-tailing'
p324
sS'fpm'
p325
S'federated presence management'
p326
sS'lamp'
p327
S'linux, apache, mysql, php'
p328
sS'internet information server'
p329
S'iis'
p330
sS'gate'
p331
S'general architecture for text engineering'
p332
sS'xhtml'
p333
S'extensible hypertext markup language'
p334
sS'fp'
p335
S'fat provisioning'
p336
sS'sng'
p337
S'satellite news gathering'
p338
sS'tarball'
p339
S'tar archive'
p340
sS'npi'
p341
S'national provider identifier'
p342
sS'high-definition multimedia interface'
p343
S'hdmi'
p344
sS'java online analytical processing'
p345
S'jolap'
p346
sS'electronic business xml'
p347
S'ebxml'
p348
sS'jargon file'
p349
S"new hacker's dictionary"
p350
sS'leaf-spine architecture'
p351
S'leaf-spine'
p352
sS'health care compliance association'
p353
S'hcca'
p354
sS'rmad'
p355
S'rapid mobile app development'
p356
sS'mac'
p357
S'mandatory access control'
p358
sS'additive manufacturing'
p359
S'3-d printing'
p360
sS'telephone company'
p361
S'telco'
p362
sS'm-commerce'
p363
S'mobile commerce'
p364
sS'java virtual machine'
p365
S'jvm'
p366
sS'yellowdog updater, modified'
p367
S'yum'
p368
sS'pareto distribution diagram'
p369
S'pareto chart'
p370
sS'npr'
p371
S'national population register'
p372
sS'exchange 2000'
p373
S'e2k'
p374
sS'xerography'
p375
S'electrophotography'
p376
sS'watchdog timer'
p377
S'wdt'
p378
sS'w2k'
p379
S'windows 2000'
p380
sS'ghz'
p381
S'gigahertz'
p382
sS'i/o contention'
p383
S'input/output contention'
p384
sS'e-commerce'
p385
S'electronic commerce or ec'
p386
sS"'tis"
p387
S"or t'is?"
p388
sS'high-density - read only memory'
p389
S'hd-rom'
p390
sS'vmo'
p391
S'vendor management office'
p392
sS'tty'
p393
S'teletypewriter'
p394
sS'd-amps'
p395
S'digital-advanced mobile phone service'
p396
sS'calibrated vectored cooling'
p397
S'cvc'
p398
sS'ucaas'
p399
S'unified communications as a service'
p400
sS'vesa vl bus'
p401
S'vesa local bus'
p402
sS'kba'
p403
S'knowledge-based authentication'
p404
sS'vcb proxy'
p405
S'vmware consolidated backup proxy'
p406
sS'bicc'
p407
S'bearer independent call control'
p408
sS'top'
p409
S'technical office protocol'
p410
sS'radar'
p411
S'radio detection and ranging'
p412
sS'led-backlight lcd television'
p413
S'led tv'
p414
sS'quality control'
p415
S'qc'
p416
sS'statistical'
p417
S'range'
p418
sS'enhanced data gsm environment'
p419
S'edge'
p420
sS'vitc'
p421
S'vertical interval time code'
p422
sS'kernel-based virtual machine'
p423
S'kvm'
p424
sS'capital expenditure'
p425
S'capex'
p426
sS'vms'
p427
S'vendor management system'
p428
sS'universal search'
p429
S'federated search'
p430
sS'serial-attached scsi solid-state drive'
p431
S'sas ssd'
p432
sS'magnetomotive force'
p433
S'magnetic potential'
p434
sS'qdos'
p435
S'86-dos'
p436
sS'sales performance management'
p437
S'spm'
p438
sS'e&m;'
p439
S'ear and mouth'
p440
sS'internet inter-orb protocol'
p441
S'iiop'
p442
sS'ntro'
p443
S'national technical research organisation'
p444
sS'java foundation classes'
p445
S'jfc'
p446
sS'network based application recognition'
p447
S'nbar'
p448
sS'packet loss concealment'
p449
S'plc'
p450
sS'a/b testing'
p451
S'split testing'
p452
sS'fim'
p453
S'federated identity management'
p454
sS'uhf'
p455
S'ultrahigh frequency'
p456
sS'nano-emissive display'
p457
S'ned'
p458
sS'raid 10'
p459
S'redundant array of independent disks'
p460
sS'good manufacturing practice'
p461
S'gmp'
p462
sS'palo alto research center'
p463
S'parc'
p464
sS'dao'
p465
S'data access objects'
p466
sS'language-oriented programming'
p467
S'lop'
p468
sS'a-weighted decibels (dba, or dba, or db'
p469
S'a)'
p470
sS'packet-level procedure'
p471
S'pap'
p472
sS'phase-change liquid exchange'
p473
S'ecophlex'
p474
sS'qhd'
p475
S'quarter high definition'
p476
sS'electronic document management'
p477
S'edm'
p478
sS'xaas'
p479
S'anything as a service'
p480
sS'odin'
p481
S'open device identification number'
p482
sS'halo'
p483
S'high altitude long operation'
p484
sS'fourth-generation wireless'
p485
S'4g'
p486
sS'nfc'
p487
S'near field communication'
p488
sS'mrp ii'
p489
S'manufacturing resource planning'
p490
sS'wall time'
p491
S'real-world time or wall-clock time'
p492
sS'trai'
p493
S'telecom regulatory authority of india'
p494
sS'var agreement'
p495
S'value-added reseller agreement'
p496
sS'tata consultancy services'
p497
S'tcs'
p498
sS'udid'
p499
S'unique device identifier'
p500
sS'kaizen'
p501
S'or continuous improvement'
p502
sS'variable-length subnet mask'
p503
S'vlsm'
p504
sS'val it'
p505
S'value from it investments'
p506
sS'kpo'
p507
S'knowledge process outsourcing'
p508
sS'nhii'
p509
S'national health information infrastructure'
p510
sS'intermediate document'
p511
S'idoc'
p512
sS'cabinet file'
p513
S'.cab'
p514
sS'nhin'
p515
S'nationwide health information network'
p516
sS'yet another setup tool'
p517
S'yast'
p518
sS'mdf'
p519
S'market development funds'
p520
sS'nih'
p521
S'national institutes of health'
p522
sS'san switch'
p523
S'storage area network switch'
p524
sS'object-relational mapping'
p525
S'orm'
p526
sS'ubiquitous sensor network'
p527
S'usn'
p528
sS'e-services'
p529
S'electronic services'
p530
sS'sox'
p531
S'sarbanes-oxley act'
p532
sS'query by example'
p533
S'qbe'
p534
sS'factory reset; master reset'
p535
S'hard reset'
p536
sS'hld'
p537
S'hardware load-balancing device'
p538
sS'electronic bill presentment and payment'
p539
S'ebpp'
p540
sS'e-paper'
p541
S'radio paper or electronic paper'
p542
sS'vcd'
p543
S'video cd or video compact disc'
p544
sS'fair credit reporting act'
p545
S'fcra'
p546
sS'samsung for enterprise'
p547
S'safe'
p548
sS'1170'
p549
S'unix 98'
p550
sS'xbrl'
p551
S'extensible business reporting language'
p552
sS'watt-hour'
p553
S'wh'
p554
sS'smp'
p555
S'sap mobile platform'
p556
sS'neft'
p557
S'national electronic funds transfer'
p558
sS'vcr'
p559
S'videocassette recorder'
p560
sS'bandwidth test'
p561
S'testing your bandwidth'
p562
sS'kelvin'
p563
S'k'
sS'otp token'
p564
S'one-time password token'
p565
sS's-video'
p566
S'super-video, y/c video, component video'
p567
sS'sales and operations planning'
p568
S's&op;'
p569
sS'xml schema definition'
p570
S'xsd'
p571
sS'dbir'
p572
S'verizon data breach investigations report'
p573
sS'third-party assessment organization'
p574
S'fedramp 3pao'
p575
sS'nic'
p576
S'national informatics centre'
p577
sS'asp'
p578
S'active server pages'
p579
sS'windows assigned access'
p580
S'kiosk mode'
p581
sS'java within hypertext markup language'
p582
S'jhtml'
p583
sS'same origin policy'
p584
S'sop'
p585
sS'lms'
p586
S'learning management system'
p587
sS'cadmium telluride'
p588
S'cdte'
p589
sS'mms'
p590
S'manufacturing message specification'
p591
sS'java development kit'
p592
S'jdk'
p593
sS'x'
S'compact disc access time'
p594
sS'java message service'
p595
S'jms'
p596
sS'object id'
p597
S'oid'
p598
sS'wi-fi'
p599
S'802.11'
p600
sS'object request broker'
p601
S'orb'
p602
sS'business / enterprise state transfer'
p603
S'best'
p604
sS'landesk client manager'
p605
S'ldcm'
p606
sS'warehouse control system'
p607
S'wcs'
p608
sS'vertical slash or upright slash'
p609
S'vertical line'
p610
sS'legacy operating system'
p611
S'legacy platform'
p612
sS'atl'
p613
S'active template library'
p614
sS'generation 2 vms'
p615
S'generation 2 virtual machines'
p616
sS'wag'
p617
S'estimate'
p618
sS'wan optimization'
p619
S'wan acceleration'
p620
sS'software as a service'
p621
S'vertical saas'
p622
sS'abampere'
p623
S'aba'
p624
sS'microsoft azure'
p625
S'windows azure'
p626
sS'zope'
p627
S'z object publishing environment'
p628
sS'vlsi'
p629
S'very large scale integration'
p630
sS'call detail record'
p631
S'cdr'
p632
sS'e ink'
p633
S'eink'
p634
sS'niap'
p635
S'national information assurance partnership'
p636
sS'icrime'
p637
S'apple picking'
p638
sS'owd'
p639
S'onewebday'
p640
sS'hadoop distributed file system'
p641
S'hdfs'
p642
sS'cade'
p643
S'corporate average data center efficiency'
p644
sS'nhs'
p645
S'national health service'
p646
sS'near cdp'
p647
S'near-continuous data protection'
p648
sS'nanobiomechanics'
p649
S'nanoscale biomechanics'
p650
sS'gallium arsenide'
p651
S'gaas'
p652
sS'jabber'
p653
S'in networks'
p654
sS'backup domain controller'
p655
S'windows nt'
p656
sS'iam'
p657
S'identity access management'
p658
sS'jes'
p659
S'job entry subsystem'
p660
sS'nfts'
p661
S'national file tracking system'
p662
sS'gpf'
p663
S'general protection fault'
p664
sS'ibm system z application assist processor'
p665
S'zaap'
p666
sS'abohm'
p667
S'ab w'
p668
sS'e-mail postage'
p669
S'sender pays'
p670
sS'iab'
p671
S'internet architecture board'
p672
sS'w32.kriz, w32.kriz.dr, or pe_kriz'
p673
S'kriz virus'
p674
sS'ncfa'
p675
S'national call fee access'
p676
sS'odmr'
p677
S'on-demand mail relay'
p678
sS'iax'
p679
S'inter-asterisk exchange protocol'
p680
sS'high definition television'
p681
S'hdtv'
p682
sS'iap'
p683
S'internet access provider'
p684
sS'nas filer'
p685
S'network-attached storage filer'
p686
sS'udp'
p687
S'user datagram protocol'
p688
sS'e-prescribing'
p689
S'erx'
p690
sS'raid 50'
p691
S'raid 5+0'
p692
sS'home audio visual'
p693
S'havi'
p694
sS'qualified security assessor'
p695
S'qsa'
p696
sS'uda'
p697
S'universal data access'
p698
sS'jbig'
p699
S'joint bi-level image experts group'
p700
sS'v-model'
p701
S'vee-model'
p702
sS'nca'
p703
S'native cloud application'
p704
sS'association for computing machinery'
p705
S'acm'
p706
sS'advanced configuration and power interface'
p707
S'acpi'
p708
sS'telestroke services'
p709
S'telestroke'
p710
sS'campaign for real mail'
p711
S'camram'
p712
sS'24x7'
p713
S'24 hours a day, 7 days a week'
p714
sS'gps stash hunting'
p715
S'geocaching'
p716
sS'sales force automation'
p717
S'sfa'
p718
sS'zero'
p719
S'0'
sS'vmi'
p720
S'vendor-managed inventory'
p721
sS'amazon glacier'
p722
S'glacier'
p723
sS'zoned-bit recording'
p724
S'zbr'
p725
sS'odl'
p726
S'open and distance learning'
p727
sS'toe'
p728
S'unified field theory or theory of everything'
p729
sS'electronic voting'
p730
S'e-voting'
p731
sS'rad'
p732
S'rapid application development'
p733
sS'integrated definition'
p734
S'idef'
p735
sS'nlp'
p736
S'natural language processing'
p737
sS'pan truncation'
p738
S'primary account number'
p739
sS'reasonable and nondiscriminatory'
p740
S'rand'
p741
sS'prm'
p742
S'partner relationship management'
p743
sS'saa'
p744
S'systems application architecture'
p745
sS'ram'
p746
S'random access memory'
p747
sS'xml infoset'
p748
S'xml information set'
p749
sS'large hadron collider'
p750
S'lhc'
p751
sS'internet engineering task force'
p752
S'ietf'
p753
sS'nqf'
p754
S'national quality forum'
p755
sS'dasd'
p756
S'direct access storage device'
p757
sS'lbo'
p758
S'leveraged buyout'
p759
sS'internet fibre channel protocol'
p760
S'ifcp'
p761
sS'extensible open router platform'
p762
S'xorp'
p763
sS'callback'
p764
S'international callback'
p765
sS'password chaos'
p766
S'identity chaos'
p767
sS'aws direct connect'
p768
S'direct connect'
p769
sS'mib'
p770
S'management information base'
p771
sS'net promoter score'
p772
S'nps'
p773
sS'zero-based thinking'
p774
S'zbt'
p775
sS'flip chip-pin grid array'
p776
S'fc-pga'
p777
sS'k6'
p778
S'amd-k6'
p779
sS'object-oriented programming'
p780
S'oop'
p781
sS'fast array of wimpy nodes'
p782
S'fawn'
p783
sS'ncsc'
p784
S'national computer security center'
p785
sS'udo'
p786
S'ultra density optical'
p787
sS'in grid computing'
p788
S'hardware as a service'
p789
sS'quadbit'
p790
S'nibble'
p791
sS'blind carbon copy or blind courtesy copy'
p792
S'bcc'
p793
sS'zip codes'
p794
S'zoning improvement plan codes'
p795
sS'pair'
p796
S'policy analysis of internet routing'
p797
sS'negative slack'
p798
S'negative float'
p799
sS'ibm integrated facility for linux'
p800
S'ifl'
p801
sS'wats'
p802
S'wide-area telephone service'
p803
sS'kg'
p804
S'kilogram'
p805
sS'fedramp'
p806
S'federal risk and authorization program'
p807
sS'u.k. data protection act 1998'
p808
S'dpa 1998'
p809
sS'just enough operating system'
p810
S'jeos'
p811
sS'km'
p812
S'knowledge management'
p813
sS'gallium nitride'
p814
S'gan'
p815
sS's corporation'
p816
S's corp'
p817
sS'keyhole markup language'
p818
S'kml'
p819
sS'x9'
p820
S'asc x9'
p821
sS'd2d2c'
p822
S'disk-to-disk-to-cloud'
p823
sS'udf'
p824
S'universal disk format'
p825
sS'layer 4-7'
p826
S'network services'
p827
sS'hmac'
p828
S'hash-based message authentication code'
p829
sS'in managed services'
p830
S'hardware-as-a-service'
p831
sS'qos'
p832
S'quality of service'
p833
sS'microsoft outlook web app'
p834
S'owa'
p835
sS'bell communications research'
p836
S'bellcore'
p837
sS'fiber distributed data interface'
p838
S'fddi'
p839
sS'raid 6'
p840
S'redundant array of independent disks'
p841
sS'raid 7'
p842
S'redundant array of independent disks'
p843
sS'raid 4'
p844
S'redundant array of independent disks'
p845
sS'raid 5'
p846
S'redundant array of independent disks'
p847
sS'raid 3'
p848
S'redundant array of independent disks'
p849
sS'raid 0'
p850
S'disk striping'
p851
sS'enterprise application integration'
p852
S'eai'
p853
sS'nlm'
p854
S'national library of medicine'
p855
sS'xml'
p856
S'extensible markup language'
p857
sS'xmi'
p858
S'xml metadata interchange'
p859
sS'uiml'
p860
S'user interface markup language'
p861
sS'cache'
p862
S'computing'
p863
sS'ram-based solid state drive'
p864
S'ssd'
p865
sS'abend'
p866
S'abnormal end'
p867
sS'anqp'
p868
S'access network query protocol'
p869
sS'ldap'
p870
S'lightweight directory access protocol'
p871
sS'tapi'
p872
S'telephony application program interface'
p873
sS'jad'
p874
S'joint application development'
p875
sS'fast retransmit and recovery'
p876
S'frr'
p877
sS'ibm daksh'
p878
S'ibm global process services'
p879
sS'satae'
p880
S'sata express'
p881
sS'bcma'
p882
S'bar coded medication administration'
p883
sS'70-20-10 rule'
p884
S'70-20-10'
p885
sS'ad domain'
p886
S'active directory domain'
p887
sS'2-in-1 tablet'
p888
S'hybrid tablet, convertible tablet'
p889
sS'handle to registry key'
p890
S'hkey'
p891
sS'baffle'
p892
S'data center hot aisle containment'
p893
sS'121'
p894
S'one-to-one'
p895
sS'routing and special handling'
p896
S'rashport'
p897
sS'm&o;'
p898
S'management and operations'
p899
sS'quality of experience'
p900
S'qoe or qox'
p901
sS'yard management system'
p902
S'yms'
p903
sS'tco'
p904
S'total cost of ownership'
p905
sS'e-form'
p906
S'electronic form'
p907
sS'light-emitting diode'
p908
S'oled'
p909
sS'bal'
p910
S'basic assembler language'
p911
sS'$100 laptop'
p912
S'xo'
p913
sS'karnaugh map'
p914
S'k-map'
p915
sS'value-added network'
p916
S'van'
p917
sS'printout'
p918
S'hard copy'
p919
sS'xga and xga-2'
p920
S'extended graphics array'
p921
sS'360-degree virtual reality'
p922
S'360-degree vr'
p923
sS'cable modem termination system'
p924
S'cmts'
p925
sS'nui'
p926
S'natural user interface'
p927
sS'utm'
p928
S'unified threat management'
p929
sS'pvm'
p930
S'parallel virtual machine'
p931
sS'wan interface card'
p932
S'wic'
p933
sS'sap user conference'
p934
S'sapphire now'
p935
sS'ocsp'
p936
S'online certificate status protocol'
p937
sS'k desktop environment'
p938
S'kde'
p939
sS'xmpp'
p940
S'extensible messaging and presence protocol'
p941
sS'nanomachine'
p942
S'nanite'
p943
sS'help america vote act of 2002'
p944
S'hava'
p945
sS'joint photographic experts group'
p946
S'jpeg'
p947
sS'backup utility'
p948
S'bu'
p949
sS'keyboard, video, mouse switch'
p950
S'kvm switch'
p951
sS'gnu image manipulation program'
p952
S'gimp'
p953
sS'gigabit wi-fi'
p954
S'802.11ac'
p955
sS'omb'
p956
S'office of management and budget'
p957
sS'janet'
p958
S'joint academic network'
p959
sS'xslt'
p960
S'xsl transformations'
p961
sS'darpa'
p962
S'defense advanced research projects agency'
p963
sS'fast infoset'
p964
S'fi'
p965
sS'war driving'
p966
S'access point mapping'
p967
sS'dmz'
p968
S'demilitarized zone'
p969
sS'vrm'
p970
S'vendor risk management'
p971
sS'j2ee'
p972
S'java 2 platform, enterprise edition'
p973
sS'high-definition downconverter'
p974
S'hd downconverter'
p975
sS'tablet'
p976
S'tablet pc'
p977
sS'mac address'
p978
S'media access control address'
p979
sS'gbps'
p980
S'billions of bits per second'
p981
sS'geofencing'
p982
S'geo-fencing'
p983
sS'java speech api markup language'
p984
S'jsml'
p985
sS'cable tv or catv'
p986
S'community antenna television'
p987
sS'or marcomm'
p988
S'marcom'
p989
sS'extensible public relations language'
p990
S'xprl'
p991
sS'machine-to-machine'
p992
S'm2m'
p993
sS'dark energy'
p994
S'quintessence'
p995
sS'cod'
p996
S'capacity on demand'
p997
sS'knowledge warehouse'
p998
S'kw'
p999
sS'ntsc'
p1000
S'national television standards committee'
p1001
sS'quality assurance'
p1002
S'qa'
p1003
sS'n_port id virtualization'
p1004
S'npiv'
p1005
sS'co'
p1006
S'capacity optimization'
p1007
sS'kwh'
p1008
S'kilowatt-hour'
p1009
sS'b corporation'
p1010
S'benefit corporation'
p1011
sS'ibm general parallel file system'
p1012
S'ibm gpfs'
p1013
sS'cd'
p1014
S'candela'
p1015
sS'pon'
p1016
S'passive optical network'
p1017
sS'maemo'
p1018
S'nokia maemo'
p1019
sS'ucc'
p1020
S'unified communications and collaboration'
p1021
sS'or barcode'
p1022
S'bar code'
p1023
sS'8-level vestigial sideband'
p1024
S'8-vsb'
p1025
sS'sap xi'
p1026
S'sap exchange infrastructure'
p1027
sS'langmuir-blodgett film'
p1028
S'lb film'
p1029
sS'uid'
p1030
S'unique identifier'
p1031
sS'farad'
p1032
S'f'
sS'value proposition'
p1033
S'vp'
p1034
sS'idot'
p1035
S'identity of things'
p1036
sS'maid'
p1037
S'massive array of idle disks'
p1038
sS'quiz'
p1039
S'manufacturing details'
p1040
sS'radio data system'
p1041
S'rds'
p1042
sS'daml'
p1043
S'darpa agent markup language'
p1044
sS'asexual reproduction'
p1045
S'parthenogenesis'
p1046
sS'bmc'
p1047
S'baseboard management controller'
p1048
sS'key risk indicator'
p1049
S'kri'
p1050
sS'common application programming interface'
p1051
S'capi'
p1052
sS'java management extensions'
p1053
S'jmx'
p1054
sS'gan'
p1055
S'generic access network'
p1056
sS's-http'
p1057
S'secure http'
p1058
sS'ldif'
p1059
S'lightweight directory interchange format'
p1060
sS'third generation of mobile telephony'
p1061
S'3g'
p1062
sS'e-reader'
p1063
S'electronic reader'
p1064
sS'rados block device'
p1065
S'rbd'
p1066
sS'xacml'
p1067
S'extensible access control markup language'
p1068
sS'pacs'
p1069
S'picture archiving and communication system'
p1070
sS'radio frequency'
p1071
S'rf, rf, orr.f.'
p1072
sS'casl'
p1073
S'canadian anti-spam legislation'
p1074
sS'vortal'
p1075
S'vertical portal'
p1076
sS'or marchitecture'
p1077
S'marketecture'
p1078
sS'vanity url'
p1079
S'vanity uniform resource locator'
p1080
sS'vbns'
p1081
S'very high-speed backbone network service'
p1082
sS'bcbs'
p1083
S'basel committee on banking supervision'
p1084
sS'hdd'
p1085
S'hard disk drive'
p1086
sS'aaui'
p1087
S'apple attachment unit interface'
p1088
sS'telerobotics'
p1089
S'teleoperation'
p1090
sS'online transaction processing'
p1091
S'oltp'
p1092
sS'vbi'
p1093
S'vertical blanking interval'
p1094
sS'khz'
p1095
S'kilohertz'
p1096
sS'qix'
p1097
S'nasdaq information exchange protocol'
p1098
sS'z990'
p1099
S't-rex'
p1100
sS'wearables operating system'
p1101
S'wearables os'
p1102
sS'false rejection'
p1103
S'type i error'
p1104
sS'vob'
p1105
S'versioned object base'
p1106
sS'abcoulomb'
p1107
S'abc'
p1108
sS'talent management software'
p1109
S'tm software'
p1110
sS'mql'
p1111
S'marketing-qualified lead'
p1112
sS'rip'
p1113
S'raster image processor'
p1114
sS'five nines or five 9s'
p1115
S'99.999'
p1116
sS'bms'
p1117
S'battery management system'
p1118
sS'or plug'
p1119
S'male connector'
p1120
sS'network data management protocol'
p1121
S'ndmp'
p1122
sS'false acceptance'
p1123
S'type ii error'
p1124
sS'zulu'
p1125
S'zulu time'
p1126
sS'saml'
p1127
S'security assertion markup language'
p1128
sS'kyoto wheel'
p1129
S'kyoto cooling'
p1130
sS'nanosecond'
p1131
S'ns or nsec'
p1132
sS'upnp'
p1133
S'universal plug and play'
p1134
sS'fme'
p1135
S'feature manipulation engine'
p1136
sS'e-filing'
p1137
S'electronic filing'
p1138
sS'unc'
p1139
S'universal naming convention'
p1140
sS'quant'
p1141
S'quantitative analyst'
p1142
sS'qam'
p1143
S'quadrature amplitude modulation'
p1144
sS'remote access trojan'
p1145
S'rat'
p1146
sS'jar file'
p1147
S'java archive'
p1148
sS'pam'
p1149
S'partner account manager'
p1150
sS'pan'
p1151
S'video'
p1152
sS'enhanced tv binary interchange format'
p1153
S'ebif'
p1154
sS'3d chip'
p1155
S'3-d chip'
p1156
sS'raid'
p1157
S'redundant array of independent disks'
p1158
sS'vcsel'
p1159
S'vertical cavity surface emitting laser'
p1160
sS'ucs'
p1161
S'unified computing system'
p1162
sS'10-high-day busy period'
p1163
S'10hd busy period'
p1164
sS'high-density dvd'
p1165
S'hd-dvd'
p1166
sS'hana'
p1167
S'sap hana'
p1168
sS'laser diode'
p1169
S'injection laser or diode laser'
p1170
sS'federal communications commission'
p1171
S'fcc'
p1172
sS'queries-per-second'
p1173
S'qps'
p1174
sS'key-value pair'
p1175
S'kvp'
p1176
sS'interface definition language'
p1177
S'idl'
p1178
sS'abfarad'
p1179
S'abf'
p1180
sS'l2rm'
p1181
S'lead-to-revenue management'
p1182
sS't-sql'
p1183
S'transact-sql'
p1184
sS'wireless abstract xml'
p1185
S'wax'
p1186
sS'oab'
p1187
S'offline address book'
p1188
sS'network unified storage or nus'
p1189
S'unified storage'
p1190
sS'i2s'
p1191
S'squid'
p1192
sS'java database connectivity'
p1193
S'jdbc'
p1194
sS'immediate real-time system'
p1195
S'hard real-time system'
p1196
sS'geographic information system'
p1197
S'gis'
p1198
sS'$35 computer'
p1199
S'raspberry pi'
p1200
sS'one laptop per child'
p1201
S'olpc'
p1202
sS'2d barcode'
p1203
S'two-dimensional barcode'
p1204
sS'mom'
p1205
S'manufacturing operation management'
p1206
sS'facta'
p1207
S'fair and accurate credit transactions act'
p1208
sS'calconnect'
p1209
S'calendaring and scheduling consortium'
p1210
sS'ocr'
p1211
S'office for civil rights'
p1212
sS'abap'
p1213
S'advanced business application programming'
p1214
sS'mft'
p1215
S'managed file transfer'
p1216
sS'vcio'
p1217
S'virtual cio'
p1218
sS'simple api for xml'
p1219
S'sax'
p1220
sS'magneto-optical drive'
p1221
S'mo'
p1222
sS'necp'
p1223
S'national emergency communications plan'
p1224
sS'quarter video graphics array'
p1225
S'qvga'
p1226
sS'quad fastethernet'
p1227
S'qfe'
p1228
sS'package manager or package management system'
p1229
S'pms'
p1230
sS'nagware'
p1231
S'annoyware'
p1232
sS'hal'
p1233
S'hardware abstraction layer'
p1234
sS'magnetic resonance imaging'
p1235
S'mri'
p1236
sS'cloud federation'
p1237
S'federated cloud'
p1238
sS'electronic ticket'
p1239
S'e-ticket'
p1240
sS'palm os'
p1241
S'palm operating system'
p1242
sS'integrated digital enhanced network'
p1243
S'iden'
p1244
sS'd3.js'
p1245
S'data-driven documents'
p1246
sS'radian per second'
p1247
S'rad/s or rad/sec'
p1248
sS'status code'
p1249
S'404'
p1250
sS'extensible rights markup language'
p1251
S'xrml'
p1252
sS'ado'
p1253
S'activex data objects'
p1254
sS'online analytical processing'
p1255
S'olap'
p1256
sS'ibm tsm'
p1257
S'ibm tivoli storage manager'
p1258
sS'general fund enterprise business system'
p1259
S'gfebs'
p1260
sS'zeus trojan'
p1261
S'zbot'
p1262
sS'packet order correction'
p1263
S'poc'
p1264
sS'if this then that'
p1265
S'ifttt'
p1266
sS'group id or global index file'
p1267
S'gid'
p1268
sS'lcd'
p1269
S'liquid crystal display'
p1270
sS'nvd'
p1271
S'national vulnerability database'
p1272
sS'pisano'
p1273
S'leonardo fibonacci'
p1274
sS'exchange-to-exchange'
p1275
S'e2e'
p1276
sS'nanotechnology'
p1277
S'molecular manufacturing'
p1278
sS'frcp'
p1279
S'federal rules of civil procedure'
p1280
sS'w32/rjump'
p1281
S'ravmone virus'
p1282
sS'lawful interception'
p1283
S'li'
p1284
sS'enhanced 911'
p1285
S'e911'
p1286
sS'malicious software'
p1287
S'malware'
p1288
sS'automatic coin telephone system'
p1289
S'acts'
p1290
sS'uce'
p1291
S'unsolicited commercial email'
p1292
sS'network driver interface specification'
p1293
S'ndis'
p1294
sS'four-dimensional printing'
p1295
S'4-d printing'
p1296
sS'radiology information system'
p1297
S'ris'
p1298
sS't'
S'temperature'
p1299
sS'wdm'
p1300
S'wavelength-division multiplexing'
p1301
sS'thick client'
p1302
S'fat client'
p1303
sS'very high frequency'
p1304
S'vhf'
p1305
sS'abwatt'
p1306
S'abw'
p1307
sS'last mile of finance'
p1308
S'lmof'
p1309
sS'page authority'
p1310
S'web page authority'
p1311
sS'point-of-sale data, pos data'
p1312
S'barcode data'
p1313
sS'abvolt'
p1314
S'abv'
p1315
sS'handtop'
p1316
S'ultra personal computer'
p1317
sS'kazaa media desktop'
p1318
S'kmd'
p1319
sS'fair information practices'
p1320
S'fip'
p1321
sS'sata ii'
p1322
S'sata 2'
p1323
sS'extensible stylesheet language'
p1324
S'xsl'
p1325
sS'java naming and directory interface'
p1326
S'jndi'
p1327
sS'p3p'
p1328
S'platform for privacy preferences'
p1329
sS'california primary care association'
p1330
S'cpca'
p1331
sS'vna'
p1332
S'vendor neutral archive'
p1333
sS'qr code'
p1334
S'quick response code'
p1335
sS'warchalking'
p1336
S'war chalking'
p1337
sS'camera recorder'
p1338
S'camcorder'
p1339
sS'e-mail'
p1340
S'electronic mail or email'
p1341
sS'graphics interchange format version 89a'
p1342
S'gif89a'
p1343
sS'kernel samepage merging'
p1344
S'ksm'
p1345
sS'vcdx'
p1346
S'vmware certified design expert'
p1347
sS'java business integration'
p1348
S'jbi'
p1349
sS'icp'
p1350
S'internet commerce provider'
p1351
sS'lazy loading'
p1352
S'dynamic function loading'
p1353
sS'g-cloud'
p1354
S'government cloud'
p1355
sS'fast guide to dsl'
p1356
S'digital subscriber line'
p1357
sS'hsm'
p1358
S'hardware security module'
p1359
sS'zombie'
p1360
S'bot'
p1361
sS'100 gigabit ethernet'
p1362
S'100gbe'
p1363
sS'mitm'
p1364
S'man-in-the-middle attack'
p1365
sS'oem'
p1366
S'original equipment manufacturer'
p1367
sS'fibre channel over ethernet'
p1368
S'fcoe'
p1369
sS'rup'
p1370
S'rational unified process'
p1371
sS'aws multi-factor authentication'
p1372
S'aws mfa'
p1373
sS'gas constant'
p1374
S'universal molar gas constant'
p1375
sS'source data or atomic data'
p1376
S'raw data'
p1377
sS'unipolar transmission'
p1378
S'unipolar signaling'
p1379
sS'zif socket'
p1380
S'zero insertion force socket'
p1381
sS'community cloud'
p1382
S'salesforce community cloud'
p1383
sS'uncompressing'
p1384
S'or decompressing'
p1385
sS'uart'
p1386
S'universal asynchronous receiver/transmitter'
p1387
sS'amazon ebs'
p1388
S'amazon elastic block store'
p1389
sS'aco'
p1390
S'accountable care organization'
p1391
sS'acl'
p1392
S'access control list'
p1393
sS'thousands of lines of code'
p1394
S'kloc'
p1395
sS'j2me'
p1396
S'java 2 platform, micro edition'
p1397
sS'kbps'
p1398
S'kilobits per second'
p1399
sS'mahindra special services group'
p1400
S'mssg'
p1401
sS'requirements creep or scope creep'
p1402
S'feature creep'
p1403
sS'vsp'
p1404
S'vertical solutions provider'
p1405
sS'ferc'
p1406
S'federal energy regulatory commission'
p1407
sS'aha'
p1408
S'accelerated hub architecture'
p1409
sS'e-business'
p1410
S'electronic business'
p1411
sS'ppd'
p1412
S'parallel presence detect'
p1413
sS'e-bomb'
p1414
S'electromagnetic bomb'
p1415
sS'nsa'
p1416
S'national security agency'
p1417
sS'nse'
p1418
S'national stock exchange'
p1419
sS'ultra high-definition tv'
p1420
S'uhdtv'
p1421
sS'ubl'
p1422
S'universal business language'
p1423
sS'usss'
p1424
S'united states secret service'
p1425
sS'center for internet security'
p1426
S'cis'
p1427
sS'international financial reporting standards'
p1428
S'ifrs'
p1429
sS'next'
p1430
S'near-end crosstalk'
p1431
sS'high-definition upconverter'
p1432
S'hd upconverter'
p1433
sS'wan'
p1434
S'wide area network'
p1435
sS'garp'
p1436
S'generic attribute registration protocol'
p1437
sS'edgar f. "ted" codd'
p1438
S'e. f. codd'
p1439
sS'w3c'
p1440
S'world wide web consortium'
p1441
sS'handheld device markup language'
p1442
S'hdml'
p1443
sS'laboratory data sharing interoperability'
p1444
S'ldsi'
p1445
sS'aarp'
p1446
S'appletalk address resolution protocol'
p1447
sS'capacitance'
p1448
S'capacitor'
p1449
sS'vax'
p1450
S'virtual address extension'
p1451
sS'yagi antenna'
p1452
S'yagi-uda array'
p1453
sS'mail user agent'
p1454
S'mua'
p1455
sS'var'
p1456
S'value-added reseller'
p1457
sS'warehouse management system'
p1458
S'wms'
p1459
sS'burst extended data output dram'
p1460
S'bedo dram'
p1461
sS'wap'
p1462
S'wireless application protocol'
p1463
sS'video home system'
p1464
S'vhs'
p1465
sS'machine code'
p1466
S'machine language'
p1467
sS'gauss'
p1468
S'g'
sS'sda'
p1469
S'sap smart data access'
p1470
sS'volume, variety and velocity'
p1471
S'3vs'
p1472
sS'icmp'
p1473
S'internet control message protocol'
p1474
sS'i/o fencing'
p1475
S'input/output fencing'
p1476
sS'object management group'
p1477
S'omg'
p1478
sS'ubuntu 8.04 lts server edition'
p1479
S'hardy heron'
p1480
sS'fdic'
p1481
S'federal deposit insurance corporation'
p1482
sS'id management'
p1483
S'identity management'
p1484
sS'saas erp'
p1485
S'software-as-a-service erp hosting'
p1486
sS'nanotube'
p1487
S'carbon nanotube'
p1488
sS'vsb'
p1489
S'vestigial sideband'
p1490
sS'samsung galaxy note'
p1491
S'samsung gn'
p1492
sS'zv port'
p1493
S'zoomed video port'
p1494
sS'bank secrecy act'
p1495
S'bsa'
p1496
sS'kb or kbyte*'
p1497
S'kilobyte'
p1498
sS'third-party logistics'
p1499
S'3pl'
p1500
sS'statement on auditing standards no. 70'
p1501
S'sas 70'
p1502
sS'faas'
p1503
S'framework as a service'
p1504
sS'b-channel'
p1505
S'bearer channel'
p1506
sS'ad cs'
p1507
S'active directory certificate services'
p1508
sS'uk government connect secure extranet'
p1509
S'gcsx'
p1510
sS'nni'
p1511
S'national nanotechnology initiative'
p1512
sS'al'
p1513
S'access list'
p1514
sS'keep it simple, stupid'
p1515
S'kiss principle'
p1516
sS'u.s. department of homeland security'
p1517
S'dhs'
p1518
sS'interlocking door controller'
p1519
S'mantrap'
p1520
sS't.38 fax over ip'
p1521
S'foip protocol'
p1522
sS'no country redirect'
p1523
S'ncr'
p1524
sS'high-level data link control'
p1525
S'hdlc'
p1526
sS'ice'
p1527
S'in case of emergency'
p1528
sS'hyper-v virtual hard disk'
p1529
S'vhdx'
p1530
sS'unsystematic risk'
p1531
S'unsystemic risk'
p1532
sS'i2c bus'
p1533
S'inter-ic bus'
p1534
sS'nak'
p1535
S'negative acknowledgment or not acknowledged'
p1536
sS'odca'
p1537
S'open data center alliance'
p1538
sS'gre'
p1539
S'generic routing encapsulation'
p1540
sS'gallium arsenide field-effect transistor'
p1541
S'gaasfet'
p1542
sS'jcl'
p1543
S'job control language'
p1544
sS'object linking and embedding'
p1545
S'ole'
p1546
sS'garbage in, garbage out'
p1547
S'gigo'
p1548
sS'uefi'
p1549
S'unified extensible firmware interface'
p1550
sS"brewer's theorem"
p1551
S'cap theorem'
p1552
sS'e-procurement'
p1553
S'supplier exchange'
p1554
sS'a+'
p1555
S'a plus'
p1556
sS'ube'
p1557
S'unsolicited bulk email'
p1558
sS'magnetic stripe reader'
p1559
S'magstripe reader'
p1560
sS'high bit-rate digital subscriber line'
p1561
S'hdsl'
p1562
sS'tan'
p1563
S'transaction authentication number'
p1564
sS'tahoe-lafs'
p1565
S'tahoe least-authority file system'
p1566
sS'information display system'
p1567
S'3270'
p1568
sS'jaql'
p1569
S'json query language'
p1570
sS'cpf'
p1571
S'canvas fingerprinting'
p1572
sS'gigabit point-of-presence'
p1573
S'gigapop'
p1574
sS'data repository'
p1575
S'knowledge warehouse'
p1576
sS'agp'
p1577
S'accelerated graphics port'
p1578
s.