(dp1
S'assembling'
p2
S'assmebly'
p3
sS'oracleos'
p4
S'oracle'
p5
sS'gp'
p6
S'gpgpu'
p7
sS'assembler'
p8
g3
sS'pythonc'
p9
S'python'
p10
sS'dreamweave'
p11
S'dreamweaver'
p12
sS'browserfamiliar'
p13
S'browser'
p14
sS'browsers'
p15
g14
sS'visualisation'
p16
S'visualization'
p17
sS'phphtml'
p18
S'php'
p19
sS'ethercat'
p20
S'ethernet'
p21
sS'assembled'
p22
g3
sS'decode'
p23
S'decoding'
p24
sS'completion'
p25
S'compiler'
p26
sS'hibernet'
p27
S'hibernate'
p28
sS'androidios'
p29
S'android'
p30
sS'graph'
p31
g7
sS'analystfocus'
p32
S'analyses'
p33
sS'decoder'
p34
g24
sS'analytic'
p35
g33
sS'ajax3'
p36
S'ajax'
p37
sS'strutus'
p38
S'struts'
p39
sS'clusters'
p40
S'clustering'
p41
sS'multithreading'
p42
S'multithread'
p43
sS'css3'
p44
S'css'
p45
sS'oraclecim'
p46
g5
sS'pythonlinux'
p47
g10
sS'sockets'
p48
S'socket'
p49
sS'automotive'
p50
S'automation'
p51
sS'bootstrapangularjsmvc'
p52
S'bootstrap'
p53
sS'andriod'
p54
g30
sS'mysqlplus'
p55
S'mysql'
p56
sS'documented'
p57
S'documentation'
p58
sS'optimizationcomputation'
p59
S'optimization'
p60
sS'javasscript'
p61
S'javascript'
p62
sS'aix'
p63
g37
sS'routines'
p64
S'router'
p65
sS'debuggingthe'
p66
S'debugging'
p67
sS'controllers'
p68
S'controller'
p69
sS'oracleerp'
p70
g5
sS'debug'
p71
g67
sS'qatester'
p72
S'qa'
p73
sS'javabean'
p74
S'java'
p75
sS'mysql1'
p76
g56
sS'orcle'
p77
g5
sS'classified'
p78
S'classification'
p79
sS'schematics'
p80
S'schemadesign'
p81
sS'laravl'
p82
S'laravel'
p83
sS'analytical'
p84
g33
sS'knockout'
p85
S'knockoutjs'
p86
sS'androind'
p87
g30
sS'documentationsrequirements'
p88
g58
sS'backed'
p89
S'backend'
p90
sS'oraclejde'
p91
g5
sS'analytics'
p92
g33
sS'tomcatweblogic'
p93
S'tomcat'
p94
sS'struts2hibernatezend'
p95
g39
sS'androidhttp'
p96
g30
sS'java script'
p97
S'javascript'
p98
sS'githubexperience'
p99
S'git'
p100
sS'coffeescriptexperience'
p101
S'coffeescript'
p102
sS'frameworks'
p103
S'framwork'
p104
sS'cleanliness'
p105
S'cleaning'
p106
sS'unixl'
p107
S'unix'
p108
sS'consultative'
p109
S'consulting'
p110
sS'routing'
p111
g65
sS'struts2hibernate'
p112
g39
sS'javascript4'
p113
g62
sS'compilers'
p114
g26
sS'tomcatadvantage'
p115
g94
sS'debugs'
p116
g67
sS'mysqlmssqlfirebird'
p117
g56
sS'routers'
p118
g65
sS'dreamwaver'
p119
g12
sS'analyzer'
p120
g33
sS'js'
p121
g62
sS'phpmysqllinux'
p122
g19
sS'phpwind'
p123
g19
sS'architectural'
p124
S'architects'
p125
sS'analyzed'
p126
g33
sS'mysqlerp'
p127
g56
sS'analyzes'
p128
g33
sS'firewalls'
p129
S'firewall'
p130
sS'analysing'
p131
g33
sS'obj'
p132
S'objective-c'
p133
sS'mvc2'
p134
S'mvc'
p135
sS'analystabout'
p136
g33
sS'struts1'
p137
g39
sS'struts2'
p138
g39
sS'analysts'
p139
g33
sS'phpphp'
p140
g19
sS'mangodb'
p141
S'mongodb'
p142
sg65
g65
sS'diagramming'
p143
S'diagram'
p144
sS'bashshel'
p145
S'bash'
p146
sS'strutshibernate'
p147
g39
sS'phpmyadmin'
p148
g19
sS'phpmysql'
p149
g19
sS'automating'
p150
g51
sS'javac'
p151
g75
sS'schedma'
p152
g81
sS'complies'
p153
g26
sS'mcba'
p154
S'mcdba'
p155
sS'autocad1'
p156
S'autocad'
p157
sS'hypervisors'
p158
S'hypervisor'
p159
sS'assembiy'
p160
g3
sS'angular'
p161
S'angularjs'
p162
sS'mysqlsql'
p163
g56
sS'ps'
p164
S'photoshop'
p165
sS'tomcatnginxbindnfs'
p166
g94
sS'javascriptself'
p167
g62
sS'hibernatejpa'
p168
g28
sS'oracel'
p169
g5
sS'apps'
p170
S'app'
p171
sS'devops'
p172
S'devop'
p173
sS'consultancy'
p174
g110
sS'pb'
p175
S'pbd'
p176
sS'fw'
p177
S'firmware'
p178
sS'compliant'
p179
g26
sS'consultation'
p180
g110
sS'oracle11goracle12c'
p181
g5
sS'automate'
p182
g51
sS'orcale'
p183
g5
sS'diagrams'
p184
g144
sS'schema'
p185
g81
sS'c+'
p186
S'c++'
p187
sS'javascriptasp'
p188
g62
sS'analysers'
p189
g33
sS'hiveql'
p190
S'hive'
p191
sS'completed'
p192
g26
sS'analyse'
p193
g33
sS'documentations'
p194
g58
sS'consoles'
p195
S'console'
p196
sS'pbd1'
p197
g176
sS'java1'
p198
g75
sS'automated'
p199
g51
sS'completes'
p200
g26
sS'graphic'
p201
g7
sS'firewalll'
p202
g130
sS'consultants'
p203
g110
sS'mssqlserver'
p204
S'mssql'
p205
sS'embeded'
p206
S'embedded'
p207
sS'compile'
p208
g26
sS'objective c'
p209
g133
sS'java2'
p210
g75
sS'bachelors'
p211
S'bachelor'
p212
sS'browserstrong'
p213
g14
sS'embed'
p214
g207
sS'completing'
p215
g26
sS'mpeg1'
p216
S'mpeg'
p217
sS'vb'
p218
S'visual basic'
p219
sS'firewallcacti'
p220
g130
sS'workstations'
p221
S'workstation'
p222
sS'autodesk'
p223
g157
sS'labviewc'
p224
S'labview'
p225
sS'css1'
p226
g45
sS'cluster'
p227
g41
sS'graphics'
p228
g7
sS'optimizations'
p229
g60
sS'liunx'
p230
S'linux'
p231
sS'documenting'
p232
g58
sS'analysisfamiliar'
p233
g33
sS'andorid'
p234
g30
sS'amazone'
p235
S'amazon'
p236
sS'schemas'
p237
g81
sS'documents'
p238
g58
sS'anorid'
p239
g30
sS'analyzers'
p240
g33
sS'servlets'
p241
S'servlet'
p242
sS'javascrip'
p243
g62
sS'cleansing'
p244
g106
sS'phpcms'
p245
g19
sS'compiling'
p246
g26
sS'schematic'
p247
g81
sS'compiled'
p248
g26
sS'php5'
p249
g19
sS'php7'
p250
g19
sS'firwall'
p251
g130
sS'node'
p252
S'nodejs'
p253
sS'jekins'
p254
S'jenkins'
p255
sS'orace'
p256
g5
sS'pythonexpert'
p257
g10
sS'assemblybios'
p258
g3
sS'oracle1'
p259
g5
sS'backbone'
p260
S'backbonejs'
p261
sS'compress'
p262
S'compression'
p263
sS'mysqlhtml'
p264
g56
sS'linuxlanguage'
p265
g231
sS'linuxc'
p266
g231
sS'architectures'
p267
g125
sS'bootstrapexperience'
p268
g53
sS'analytically'
p269
g33
sS'browserify'
p270
g14
sS'pbd2'
p271
g176
sS'pbd3'
p272
g176
sS'vmare'
p273
S'vmware'
p274
sS'github'
p275
g100
sS'socketio'
p276
g49
sS'pbd4'
p277
g176
sS'firewall12'
p278
g130
sS'androidapp'
p279
g30
sS'mango'
p280
g142
sS'algorithms'
p281
S'algorithm'
p282
sS'scdma'
p283
g81
sS'vmware1'
p284
g274
s.