(dp1
S'assembling'
p2
S'assmebly'
p3
sS'oracleos'
p4
S'oracle'
p5
sS'gp'
p6
S'gpgpu'
p7
sS'assembler'
p8
g3
sS'pythonc'
p9
S'python'
p10
sS'dreamweave'
p11
S'dreamweaver'
p12
sS'browsers'
p13
S'browser'
p14
sS'visualisation'
p15
S'visualization'
p16
sS'phphtml'
p17
S'php'
p18
sS'ethercat'
p19
S'ethernet'
p20
sS'assembled'
p21
g3
sS'automating'
p22
S'automation'
p23
sS'completion'
p24
S'compiler'
p25
sS'hibernet'
p26
S'hibernate'
p27
sS'androidios'
p28
S'android'
p29
sS'graph'
p30
g7
sS'analystfocus'
p31
S'analyses'
p32
sS'ajax3'
p33
S'ajax'
p34
sS'analytic'
p35
g32
sS'automated'
p36
g23
sS'orcale'
p37
g5
sS'strutus'
p38
S'struts'
p39
sS'clusters'
p40
S'clustering'
p41
sS'multithreading'
p42
S'multithread'
p43
sS'css3'
p44
S'css'
p45
sS'oraclecim'
p46
g5
sS'pythonlinux'
p47
g10
sS'automotive'
p48
g23
sS'bootstrapangularjsmvc'
p49
S'bootstrap'
p50
sS'compress'
p51
S'compression'
p52
sS'andriod'
p53
g29
sS'mysqlplus'
p54
S'mysql'
p55
sS'documented'
p56
S'documentation'
p57
sS'mcba'
p58
S'mcdba'
p59
sS'aix'
p60
g34
sS'classified'
p61
S'classification'
p62
sS'debuggingthe'
p63
S'debugging'
p64
sS'controllers'
p65
S'controller'
p66
sS'oracleerp'
p67
g5
sS'analytical'
p68
g32
sS'qatester'
p69
S'qa'
p70
sS'firewalll'
p71
S'firewall'
p72
sS'javabean'
p73
S'java'
p74
sS'mysql1'
p75
g55
sS'orcle'
p76
g5
sS'routines'
p77
S'router'
p78
sS'schematics'
p79
S'schemadesign'
p80
sS'laravl'
p81
S'laravel'
p82
sS'analystabout'
p83
g32
sS'knockout'
p84
S'knockoutjs'
p85
sS'androind'
p86
g29
sS'assembiy'
p87
g3
sS'oraclejde'
p88
g5
sS'analytics'
p89
g32
sS'tomcatweblogic'
p90
S'tomcat'
p91
sS'struts2hibernatezend'
p92
g39
sS'androidhttp'
p93
g29
sS'githubexperience'
p94
S'git'
p95
sS'coffeescriptexperience'
p96
S'coffeescript'
p97
sS'objective c'
p98
S'objective-c'
p99
sS'cleanliness'
p100
S'cleaning'
p101
sS'unixl'
p102
S'unix'
p103
sS'consultative'
p104
S'consulting'
p105
sS'routing'
p106
g78
sS'javascript4'
p107
S'javascript'
p108
sS'compilers'
p109
g25
sS'tomcatadvantage'
p110
g91
sS'debugs'
p111
g64
sS'angular'
p112
S'angularjs'
p113
sS'mysqlmssqlfirebird'
p114
g55
sS'routers'
p115
g78
sS'tomcatnginxbindnfs'
p116
g91
sS'analyzer'
p117
g32
sS'js'
p118
g108
sS'debug'
p119
g64
sS'phpwind'
p120
g18
sS'architectural'
p121
S'architects'
p122
sS'analyzed'
p123
g32
sS'mysqlerp'
p124
g55
sS'analyzes'
p125
g32
sS'embed'
p126
S'embedded'
p127
sS'analysing'
p128
g32
sS'obj'
p129
g99
sS'mvc2'
p130
S'mvc'
p131
sS'phpmysqllinux'
p132
g18
sS'completing'
p133
g25
sS'struts1'
p134
g39
sS'struts2'
p135
g39
sS'analysts'
p136
g32
sS'phpphp'
p137
g18
sS'mangodb'
p138
S'mongodb'
p139
sg78
g78
sS'diagramming'
p140
S'diagram'
p141
sS'strutshibernate'
p142
g39
sS'phpmyadmin'
p143
g18
sS'phpmysql'
p144
g18
sS'browserfamiliar'
p145
g14
sS'javac'
p146
g74
sS'apps'
p147
S'app'
p148
sS'complies'
p149
g25
sS'optimizationcomputation'
p150
S'optimization'
p151
sS'autocad1'
p152
S'autocad'
p153
sS'hypervisors'
p154
S'hypervisor'
p155
sS'documentationsrequirements'
p156
g57
sS'sockets'
p157
S'socket'
p158
sS'mysqlsql'
p159
g55
sS'ps'
p160
S'photoshop'
p161
sS'dreamwaver'
p162
g12
sS'javascriptself'
p163
g108
sS'analyse'
p164
g32
sS'hibernatejpa'
p165
g27
sS'oracel'
p166
g5
sS'schedma'
p167
g80
sS'devops'
p168
S'devop'
p169
sS'consultancy'
p170
g105
sS'pb'
p171
S'pbd'
p172
sS'compliant'
p173
g25
sS'consultation'
p174
g105
sS'java2'
p175
g74
sS'oracle11goracle12c'
p176
g5
sS'automate'
p177
g23
sS'consultants'
p178
g105
sS'javasscript'
p179
g108
sS'diagrams'
p180
g141
sS'schema'
p181
g80
sS'c+'
p182
S'c++'
p183
sS'javascriptasp'
p184
g108
sS'analysers'
p185
g32
sS'hiveql'
p186
S'hive'
p187
sS'completed'
p188
g25
sS'oracle1'
p189
g5
sS'decode'
p190
S'decoding'
p191
sS'documentations'
p192
g57
sS'consoles'
p193
S'console'
p194
sS'github'
p195
g95
sS'java1'
p196
g74
sS'graphics'
p197
g7
sS'completes'
p198
g25
sS'graphic'
p199
g7
sS'assemblybios'
p200
g3
sS'socketio'
p201
g158
sS'mssqlserver'
p202
S'mssql'
p203
sS'embeded'
p204
g127
sS'androidapp'
p205
g29
sS'compile'
p206
g25
sS'frameworks'
p207
S'framwork'
p208
sS'decoder'
p209
g191
sS'bachelors'
p210
S'bachelor'
p211
sS'browserstrong'
p212
g14
sS'firewalls'
p213
g72
sS'mpeg1'
p214
S'mpeg'
p215
sS'vb'
p216
S'visual basic'
p217
sS'firewall12'
p218
g72
sS'workstations'
p219
S'workstation'
p220
sS'autodesk'
p221
g153
sS'labviewc'
p222
S'labview'
p223
sS'css1'
p224
g45
sS'cluster'
p225
g41
sS'optimizations'
p226
g151
sS'liunx'
p227
S'linux'
p228
sS'documenting'
p229
g57
sS'analysisfamiliar'
p230
g32
sS'andorid'
p231
g29
sS'amazone'
p232
S'amazon'
p233
sS'schemas'
p234
g80
sS'documents'
p235
g57
sS'anorid'
p236
g29
sS'analyzers'
p237
g32
sS'servlets'
p238
S'servlet'
p239
sS'javascrip'
p240
g108
sS'cleansing'
p241
g101
sS'phpcms'
p242
g18
sS'compiling'
p243
g25
sS'schematic'
p244
g80
sS'compiled'
p245
g25
sS'php5'
p246
g18
sS'php7'
p247
g18
sS'firwall'
p248
g72
sS'node'
p249
S'nodejs'
p250
sS'jekins'
p251
S'jenkins'
p252
sS'orace'
p253
g5
sS'pythonexpert'
p254
g10
sS'fw'
p255
S'firmware'
p256
sS'struts2hibernate'
p257
g39
sS'backbone'
p258
S'backbonejs'
p259
sS'bashshel'
p260
S'bash'
p261
sS'mysqlhtml'
p262
g55
sS'linuxlanguage'
p263
g228
sS'linuxc'
p264
g228
sS'architectures'
p265
g122
sS'bootstrapexperience'
p266
g50
sS'analytically'
p267
g32
sS'browserify'
p268
g14
sS'pbd2'
p269
g172
sS'pbd3'
p270
g172
sS'vmare'
p271
S'vmware'
p272
sS'pbd1'
p273
g172
sS'pbd4'
p274
g172
sS'firewallcacti'
p275
g72
sS'backed'
p276
S'backend'
p277
sS'mango'
p278
g139
sS'algorithms'
p279
S'algorithm'
p280
sS'scdma'
p281
g80
sS'vmware1'
p282
g272
s.