c__builtin__
set
p1
((lp2
S'radio pad'
p3
aS'standard performance evaluation corporation'
p4
aS'cloud sourcing deals anatomy'
p5
aS'wideband code division multiple access'
p6
aS'international mobile telecommunications advanced'
p7
aS'svg interface'
p8
aS'sdma'
p9
aS'web-oriented architecture'
p10
aS'cobit'
p11
aS'chief information officer'
p12
aS'uniform resource locator'
p13
aS'network computing'
p14
aS'storage appliance'
p15
aS'connection mode network service'
p16
aS'imap'
p17
aS'quick response codes'
p18
aS'sce'
p19
aS'embedded software and electronics design'
p20
aS'swap'
p21
aS'kohai'
p22
aS'document-enabled vertical application'
p23
aS'spec'
p24
aS'distributed generation'
p25
aS'application integration'
p26
aS'object transaction monitor'
p27
aS'cpri'
p28
aS'data wiping'
p29
aS'remote diagnostics'
p30
aS'supply chain execution'
p31
aS'current loop'
p32
aS'service levels'
p33
aS'push technology'
p34
aS'global delivery model'
p35
aS'life span'
p36
aS'snomed'
p37
aS'session border controllers'
p38
aS'software license management'
p39
aS'servlet'
p40
aS'commerce everywhere'
p41
aS'voip'
p42
aS'nccm'
p43
aS'integrated e-form management'
p44
aS'sast'
p45
aS'idars'
p46
aS'wholesale carrier'
p47
aS'nccj'
p48
aS'critical success factor'
p49
aS'information dispersal algorithms'
p50
aS'cme'
p51
aS'pacs'
p52
aS'cmc'
p53
aS'solution'
p54
aS'voice response unit'
p55
aS'cmv'
p56
aS'hcm'
p57
aS'cms'
p58
aS'cmp'
p59
aS'autonomous vehicles'
p60
aS'architected rapid application development'
p61
aS'fabric-based computing'
p62
aS'marketing encyclopedia system'
p63
aS'satellite dish'
p64
aS'virtualization'
p65
aS'data synchronization'
p66
aS'mobile tv'
p67
aS'mpeg'
p68
aS'ultracapacitors'
p69
aS'asic'
p70
aS'procure-to-pay solution'
p71
aS'scp'
p72
aS'adaptive multirate'
p73
aS'slo'
p74
aS'content management'
p75
aS'content delivery networks'
p76
aS'distributed platforms, proprietary'
p77
aS'it chargeback'
p78
aS'database audit and protection'
p79
aS'information cards'
p80
aS'multifunction product'
p81
aS'mem'
p82
aS'digital thin wallet solutions'
p83
aS'user experience platforms'
p84
aS'e-otd'
p85
aS'adaptive learning'
p86
aS'operational data store'
p87
aS'granularity'
p88
aS'first generation'
p89
aS'information technology'
p90
aS'synchronous communications'
p91
aS'gateway server'
p92
aS'drp'
p93
aS'switched service network'
p94
aS'digital audio broadcasting'
p95
aS'wdp'
p96
aS'enterprise content management'
p97
aS'drm'
p98
aS'database management system'
p99
aS'hundred call seconds'
p100
aS'shielded pair'
p101
aS'data profiling'
p102
aS'multichannel loyalty'
p103
aS'application-specific integrated circuit'
p104
aS'messaging hypertext markup language'
p105
aS'pdm'
p106
aS'laser disk'
p107
aS'integration brokerage'
p108
aS'partitioning code'
p109
aS'transmission control protocol'
p110
aS'socialcasting'
p111
aS'service desk'
p112
aS'bre'
p113
aS'smfp'
p114
aS'adsorption chillers'
p115
aS'cloud application development'
p116
aS'speech circuit'
p117
aS'network performance tuning/configuring facilities'
p118
aS'logistics network planning'
p119
aS'e1'
p120
aS'column-store database management system'
p121
aS'mashup'
p122
aS'global regulatory management'
p123
aS'campaign management'
p124
aS'advanced server energy monitoring tools'
p125
aS'wfm'
p126
aS'pulse width modulation'
p127
aS'open mobile alliance'
p128
aS'magneto-optic'
p129
aS'autonomous system'
p130
aS'cycle time'
p131
aS'energy management systems'
p132
aS'vpn'
p133
aS'transportation management system'
p134
aS'channel bank'
p135
aS'erp'
p136
aS'it consulting'
p137
aS'enterprise-grade'
p138
aS'oled'
p139
aS'rapid architected application development'
p140
aS'scriptless testing'
p141
aS'integrated digital network'
p142
aS'natural-language processing'
p143
aS'erm'
p144
aS'discretionary security controls'
p145
aS'satellite computer'
p146
aS'complementary metal-oxide semiconductor (cmos) radio frequency (rf) power amplifiers'
p147
aS'client appliance'
p148
aS'fabric-based infrastructure'
p149
aS'imt-a'
p150
aS'object late binding'
p151
aS'smtp'
p152
aS'extensible stylesheet language transformations'
p153
aS'sim application toolkit'
p154
aS'internet document security'
p155
aS'electronic coupons'
p156
aS'enterprise-class'
p157
aS'kpiv'
p158
aS'virtual server facility'
p159
aS'control charts'
p160
aS'visitor location register'
p161
aS'glonass'
p162
aS'information life cycle management'
p163
aS'computer-brain interface'
p164
aS'neurobusiness'
p165
aS'smart terminal'
p166
aS'light-emitting polymer'
p167
aS'serial dot matrix'
p168
aS'ens'
p169
aS'head-up displays'
p170
aS'click-through rate'
p171
aS'content optimization'
p172
aS'metadirectory'
p173
aS'simplex circuit'
p174
aS'lan'
p175
aS'access method'
p176
aS'identity-proofing services'
p177
aS'modulation'
p178
aS'transport layer security'
p179
aS'processing, line'
p180
aS'network and system management'
p181
aS'penetration rate'
p182
aS'clinical data repository'
p183
aS'broadcast storm'
p184
aS'kaikaku'
p185
aS'fabric computing'
p186
aS'digital signature'
p187
aS'configuration auditing'
p188
aS'formula/recipe management'
p189
aS'amia'
p190
aS'just in time'
p191
aS'compact disc-rewritable'
p192
aS'internet message access protocol'
p193
aS'ethernet'
p194
aS'amis'
p195
aS'organic light-emitting diode'
p196
aS'network security'
p197
aS'network computer'
p198
aS'dynamic business process management'
p199
aS'intellectual property'
p200
aS'spread spectrum'
p201
aS'wireless application protocol'
p202
aS'simple mail transfer protocol'
p203
aS'cross-compiler'
p204
aS'desktop virtualization'
p205
aS'single-carrier frequency division multiple access'
p206
aS'clm'
p207
aS'cli'
p208
aS'location-aware technology'
p209
aS'corporate license agreement'
p210
aS'cla'
p211
aS'client management tools'
p212
aS'ims'
p213
aS'business application programming interface'
p214
aS'satellite communications'
p215
aS'skill mining'
p216
aS'clv'
p217
aS'business process management suites'
p218
aS'multichannel campaign management'
p219
aS'advanced technology'
p220
aS'dmaic'
p221
aS'mvoip'
p222
aS'microfilm'
p223
aS'hospital information system or healthcare information system'
p224
aS'band'
p225
aS'enterprise security intelligence'
p226
aS'source routing'
p227
aS'mvne'
p228
aS'descriptive analytics'
p229
aS'mvno'
p230
aS'knowledge community'
p231
aS'data definition language'
p232
aS'virtual lan'
p233
aS'sideband'
p234
aS'channel capacity'
p235
aS'lisp'
p236
aS'public-key infrastructure'
p237
aS'compound annual growth rate'
p238
aS'single in-line memory module'
p239
aS'secondhand market'
p240
aS'softswitch architecture'
p241
aS'frequency division duplex'
p242
aS'mdm'
p243
aS'mda'
p244
aS'spider'
p245
aS'network topology'
p246
aS'pbx'
p247
aS'publish and subscribe'
p248
aS'functional programming languages'
p249
aS'analytic applications'
p250
aS'cpga'
p251
aS'network'
p252
aS'infrastructure software'
p253
aS'dirty protocols'
p254
aS'institute of electrical and electronics engineers'
p255
aS'dynamic web application tools'
p256
aS'dsr'
p257
aS'smr'
p258
aS'smp'
p259
aS'content'
p260
aS'loyads'
p261
aS'dsl'
p262
aS'b2b gateway software'
p263
aS'rm'
p264
aS'sme'
p265
aS'multiple input/multiple output'
p266
aS'access media gateways'
p267
aS'sma'
p268
aS'operations support system'
p269
aS'e-readers'
p270
aS'arpanet'
p271
aS'constant linear velocity'
p272
aS'endpoint protection platform'
p273
aS'switched line'
p274
aS'data scientist'
p275
aS'standard'
p276
aS'electronic forms'
p277
aS'distributed resource management'
p278
aS'line hit'
p279
aS'atg'
p280
aS'atd'
p281
aS'molecular transistors'
p282
aS'docomo java'
p283
aS'consolidated service desk'
p284
aS'atm'
p285
aS'isv'
p286
aS'bookmark'
p287
aS'also lean sensei'
p288
aS'iso'
p289
aS'ats'
p290
aS'signature'
p291
aS'portal'
p292
aS'messaging application programming interface'
p293
aS'benchmarking'
p294
aS'concurrent database restore'
p295
aS'embedded cellular data'
p296
aS'wireless application gateway'
p297
aS'wasp'
p298
aS'signature verification'
p299
aS'geostationary satellite'
p300
aS'electronic bill presentment and payment'
p301
aS'source traffic descriptor'
p302
aS'chief technology officer'
p303
aS'wi-fi mesh'
p304
aS'independent software vendor'
p305
aS'physician hospital organization'
p306
aS'information delivery'
p307
aS'shadow/mirror databases'
p308
aS'ip centrex platforms'
p309
aS'knowledge work management'
p310
aS'integration broker'
p311
aS'society for worldwide interbank financial telecommunication'
p312
aS'text mining'
p313
aS'system-managed storage'
p314
aS'it strategy'
p315
aS'design for x'
p316
aS'background task'
p317
aS'automated business process discovery'
p318
aS'satellite phone'
p319
aS'audio messaging interchange specification'
p320
aS'hybrid modeling'
p321
aS'security information and event management'
p322
aS'automatic content recognition'
p323
aS'convergent charging'
p324
aS'sonet'
p325
aS'street'
p326
aS'committed access rate'
p327
aS'softswitches'
p328
aS'low earth orbit'
p329
aS'ddbms'
p330
aS'offshore programming'
p331
aS'lbs'
p332
aS'social software standards'
p333
aS'infrastructure as a service'
p334
aS'radio packet assembler/disassembler'
p335
aS'multiplexing'
p336
aS'integrated receiver decoder'
p337
aS'bpmss'
p338
aS'hoshin'
p339
aS'consumer voice access lines'
p340
aS'lba'
p341
aS'operations services'
p342
aS'business intelligence'
p343
aS'system integration'
p344
aS'common information model'
p345
aS'unified threat management'
p346
aS'freedom of mobile multimedia access'
p347
aS'lbm'
p348
aS'conversational media'
p349
aS'gesture control'
p350
aS'dbms'
p351
aS'network security silicon'
p352
aS'sensor and rfid-based inventory and asset management business process application software'
p353
aS'computer-aided manufacturing'
p354
aS'disaster recovery planning'
p355
aS'online complex processing'
p356
aS'satphone'
p357
aS'local number portability'
p358
aS'roadms'
p359
aS'repeatable solutions'
p360
aS'switched network'
p361
aS'shipments'
p362
aS'mobile transformers'
p363
aS'bsp'
p364
aS'software-defined networks'
p365
aS'rsa'
p366
aS'translator'
p367
aS'ip address'
p368
aS'systematized nomenclature of medicine'
p369
aS'message queuing'
p370
aS'business process re-engineering'
p371
aS'idea management'
p372
aS'iefm'
p373
aS'bsc'
p374
aS'three-schema architecture'
p375
aS'electrovibration'
p376
aS'line inkjet'
p377
aS'economizers'
p378
aS'wibree'
p379
aS'geothermal power generation'
p380
aS'search engine'
p381
aS'caching server'
p382
aS'virtual machine'
p383
aS'polymer memory'
p384
aS'fiber distributed data interface'
p385
aS'syntax'
p386
aS'visual studio'
p387
aS'c/im'
p388
aS'business process automation'
p389
aS'pki'
p390
aS'availability'
p391
aS'deal sweet spot analysis'
p392
aS'hybrid cloud computing'
p393
aS'authentication service'
p394
aS'gesture recognition'
p395
aS'spamdexing'
p396
aS'content-aware data loss prevention'
p397
aS'point to point'
p398
aS'siem'
p399
aS'ldap'
p400
aS'defects per million opportunities'
p401
aS'mobile network'
p402
aS'channel service unit'
p403
aS'cluster controller'
p404
aS'cloud file sharing'
p405
aS'dm'
p406
aS'digital agencies'
p407
aS'vsat'
p408
aS'dg'
p409
aS'case management solutions'
p410
aS'java ee'
p411
aS'personal handyphone system'
p412
aS'security information and event management software'
p413
aS'media-embedded merchandising'
p414
aS'downtime'
p415
aS'media access control'
p416
aS'dr'
p417
aS'cellular multi-processing'
p418
aS'continuous controls monitoring'
p419
aS'smart pills'
p420
aS'social feedback'
p421
aS'cloud printing services'
p422
aS'wap browser'
p423
aS'emm'
p424
aS'cloud advertising'
p425
aS'critical to quality'
p426
aS'international telecommunication union'
p427
aS'procurement applications'
p428
aS'architecture'
p429
aS'ems'
p430
aS'software-defined radio'
p431
aS'light-emitting diode'
p432
aS'pace-layered application strategy'
p433
aS'bam'
p434
aS'adapters'
p435
aS'digital audiotape'
p436
aS'social gaming'
p437
aS'brand service company'
p438
aS'active directory'
p439
aS'3d scanners'
p440
aS'consultative selling'
p441
aS'analytics'
p442
aS'6lowpan'
p443
aS'phase change memory'
p444
aS'open compute project'
p445
aS'gain sharing'
p446
aS'microcode'
p447
aS'application server'
p448
aS'content marketing'
p449
aS'hmds'
p450
aS'off the shelf'
p451
aS'scattering'
p452
aS'irr'
p453
aS'wireless fidelity'
p454
aS'telecom equipment support services'
p455
aS'auto-tiering'
p456
aS'firecall'
p457
aS'rfid tags'
p458
aS'abpd'
p459
aS'ird'
p460
aS'catalog content management'
p461
aS'mobile widgets'
p462
aS'visualization'
p463
aS'rack mount'
p464
aS'component'
p465
aS'facilities management'
p466
aS'social tagging'
p467
aS'oms'
p468
aS'kurtz-above band'
p469
aS'american standard code for information interchange'
p470
aS'html5'
p471
aS'digital watermarking'
p472
aS'network virtualization'
p473
aS'incentive compensation management'
p474
aS'transmission-level point'
p475
aS'business pattern recognition'
p476
aS'cos'
p477
aS'ip extension line'
p478
aS'telecommunications carrier'
p479
aS'warehouse simulation'
p480
aS'ilm'
p481
aS'define, measure, analyze, improve, control'
p482
aS'classless inter-domain routing'
p483
aS'scalable vector graphics interface'
p484
aS'7 wastes'
p485
aS'hyperprotocol'
p486
aS'com'
p487
aS'col'
p488
aS'bluetooth 3.0'
p489
aS'virtual switch'
p490
aS'integrated document archive and retrieval system'
p491
aS'internet protocol'
p492
aS'tcp/ip'
p493
aS'advanced driver assistance systems'
p494
aS'business continuity manager'
p495
aS'prerelational dbms'
p496
aS'sac'
p497
aS'internet protocol television'
p498
aS'mssp'
p499
aS'computerized maintenance management system'
p500
aS'e-crm'
p501
aS'baud'
p502
aS'mcm'
p503
aS'service switching point'
p504
aS'demand pattern analysis'
p505
aS'project management office'
p506
aS's-http'
p507
aS'sae'
p508
aS'reuse'
p509
aS'message authentication'
p510
aS'networked data center'
p511
aS'redaction'
p512
aS'micro fuel cells'
p513
aS'total iptv subscribers'
p514
aS'ais'
p515
aS'aim'
p516
aS'slm'
p517
aS'aio'
p518
aS'business service provider'
p519
aS'process templates'
p520
aS'mobility managed services'
p521
aS'sla'
p522
aS'portal-enabling middleware'
p523
aS'it outsourcing'
p524
aS'small and midsize business'
p525
aS'web access management'
p526
aS'ip'
p527
aS'iu'
p528
aS'it'
p529
aS'web phone'
p530
aS'activity-based costing'
p531
aS'kanban'
p532
aS'im'
p533
aS'marketing automation system'
p534
aS'mobile virtual network operator'
p535
aS'direct to home'
p536
aS'ib'
p537
aS'ie'
p538
aS'reconfigurable optical add/drop multiplexers'
p539
aS'business intelligence competency center'
p540
aS'customer experience management'
p541
aS'5 whys'
p542
aS'web widgets'
p543
aS'strategic information office'
p544
aS'portable flash media for content distribution'
p545
aS'platform-independent'
p546
aS'storage service provider'
p547
aS'dpmo'
p548
aS'business impact analysis'
p549
aS'raid'
p550
aS'cpms'
p551
aS'certificate revocation list'
p552
aS'federal communications commission'
p553
aS'portable storage device control'
p554
aS'hipaa'
p555
aS'bandwidth as currency'
p556
aS'it consulting services'
p557
aS'deming pdca cycle'
p558
aS'bioacoustic sensing'
p559
aS'epp'
p560
aS'data integration'
p561
aS'client'
p562
aS'symbian'
p563
aS'protocol'
p564
aS'kpov'
p565
aS'digitization'
p566
aS'mobile voice over internet protocol'
p567
aS'million instructions per second'
p568
aS'bandwidth'
p569
aS'cooperative processing'
p570
aS'message authentication code'
p571
aS'managed security service provider'
p572
aS'knowledge map'
p573
aS'cargo portals'
p574
aS'best practice'
p575
aS'necessary non-value-adding'
p576
aS'extensible business reporting language'
p577
aS'cloudbursting'
p578
aS'han'
p579
aS'integrated software'
p580
aS'ethernet services'
p581
aS'5s'
p582
aS'3d lcds'
p583
aS'management information base'
p584
aS'statistical quality control/statistical process control'
p585
aS'closed-loop performance management'
p586
aS'pattern-based strategy'
p587
aS'tera-architectures'
p588
aS'contact center infrastructure'
p589
aS'video on demand'
p590
aS'distributed request'
p591
aS'lcr'
p592
aS'customer information file'
p593
aS'rnc'
p594
aS'prescriptive analytics'
p595
aS'multiple instruction, multiple data'
p596
aS'proxy agent'
p597
aS'lcd'
p598
aS'arad'
p599
aS'social networking'
p600
aS'work breakdown structure'
p601
aS'healthcare procedural classification system'
p602
aS'wireless data communication'
p603
aS'bpa'
p604
aS'cellular to wi-fi authentication'
p605
aS'daemon'
p606
aS'bpf'
p607
aS'cellular radio'
p608
aS'bpm'
p609
aS'bpo'
p610
aS'soap'
p611
aS'computer-based patient record'
p612
aS'e-waste'
p613
aS'avatar'
p614
aS'applications outsourcing'
p615
aS'vdi'
p616
aS'system management'
p617
aS'switchover'
p618
aS'closed user group'
p619
aS'text analytics'
p620
aS'answer marketplace'
p621
aS'connected portable media players'
p622
aS'event-triggered marketing'
p623
aS'integration as a service'
p624
aS'mobile advertising'
p625
aS'casbs'
p626
aS'embedded analytics'
p627
aS'cirp'
p628
aS'cns'
p629
aS'cirt'
p630
aS'computer-aided engineering'
p631
aS'product analytics'
p632
aS'bpr'
p633
aS'connectionless service'
p634
aS'historian software'
p635
aS'occam process'
p636
aS'european telecommunications standards institute'
p637
aS'cni'
p638
aS'core'
p639
aS'videoconferencing'
p640
aS'megaportal'
p641
aS'committed information rate'
p642
aS'osi management'
p643
aS'hsm'
p644
aS'web analytics'
p645
aS'plc'
p646
aS'active matrix organic light-emitting diodes'
p647
aS'iles'
p648
aS'open source'
p649
aS'disciplined multisourcing'
p650
aS'certified information systems security professional'
p651
aS'cumulative lead time'
p652
aS'cell site'
p653
aS'agile marketing project management'
p654
aS'hydrogen economy'
p655
aS'vlsi'
p656
aS'user authentication technologies'
p657
aS'bpaas'
p658
aS'secondary station'
p659
aS'production devices'
p660
aS'fault detection and isolation'
p661
aS'ru'
p662
aS'work management'
p663
aS'service bureau'
p664
aS'soa'
p665
aS'synchronization markup language'
p666
aS'soc'
p667
aS'generic access network'
p668
aS'e-business'
p669
aS'presence'
p670
aS'active data dictionary'
p671
aS'dashboards'
p672
aS'distributed power generation'
p673
aS'capacity requirements planning'
p674
aS'ahp'
p675
aS'lifetime clinical record'
p676
aS'sow'
p677
aS'chime'
p678
aS'wan'
p679
aS'labor management system'
p680
aS'gis'
p681
aS'marketing mix modeling'
p682
aS'wag'
p683
aS'ngtp'
p684
aS'class'
p685
aS'publish/subscribe architecture'
p686
aS'enterprise portal'
p687
aS'total cost of ownership'
p688
aS'sfa'
p689
aS'simple network management protocol'
p690
aS'computer output to microfilm or microfiche'
p691
aS'ip datacasting'
p692
aS'wireless broadband'
p693
aS'tacit knowledge'
p694
aS'idea engine'
p695
aS'sna'
p696
aS'file transfer protocol'
p697
aS'distributed data management'
p698
aS'cidr'
p699
aS'nanomaterial supercapacitors'
p700
aS'voicexml'
p701
aS'mainframe, mini and midrange'
p702
aS'lean thinking'
p703
aS'blu-ray'
p704
aS'cimi'
p705
aS'minimum cell rate'
p706
aS'moves, adds and changes'
p707
aS'local-area network'
p708
aS'shim'
p709
aS'next-generation firewalls'
p710
aS'pulse code modulation'
p711
aS'direct broadcast satellite'
p712
aS'net new connections'
p713
aS'local positioning system'
p714
aS'ni'
p715
aS'environmental health and safety'
p716
aS'distributed system management'
p717
aS'structured query language'
p718
aS'3gpp'
p719
aS'nc'
p720
aS'agent collaboration tools'
p721
aS'epm'
p722
aS'website'
p723
aS'infocomm development authority of singapore'
p724
aS'humanitarian disaster relief'
p725
aS'enterprise application software'
p726
aS'digital'
p727
aS'value stream mapping'
p728
aS'capacity utilization'
p729
aS'vrml'
p730
aS'short message service'
p731
aS'small-form-factor, legacy-reduced'
p732
aS'proprietary software'
p733
aS'hosted pc virtualization software'
p734
aS'ccas'
p735
aS'itam'
p736
aS'cost per click'
p737
aS'single minute exchange of die'
p738
aS'3.5g'
p739
aS'class-based queuing'
p740
aS'sql'
p741
aS'scope, track, rank, evaluate, evangelize and transfer'
p742
aS'channel analytics'
p743
aS'help desk management'
p744
aS'e-coupons'
p745
aS'disaster recovery'
p746
aS'cnp'
p747
aS'point of presence'
p748
aS'cloud computing'
p749
aS'zero-latency enterprise'
p750
aS'continuous operations'
p751
aS'nanography'
p752
aS'advanced threat detection'
p753
aS'rural service area'
p754
aS'sniffer'
p755
aS'blogging platforms'
p756
aS'telecommunications equipment'
p757
aS'session initiation protocol'
p758
aS'customized network management'
p759
aS'automated document factory'
p760
aS'object role modeling'
p761
aS'type a, b and c enterprises'
p762
aS'optical transport'
p763
aS'roc'
p764
aS'roe'
p765
aS'bioinformatics and chemoinformatics'
p766
aS'advanced technology group'
p767
aS'web 2.0'
p768
aS'case-based reasoning'
p769
aS'microblogging'
p770
aS'records management'
p771
aS'single-pass device'
p772
aS'mobile-network operator'
p773
aS'dynamic content'
p774
aS'digital switching'
p775
aS'xdsl iad'
p776
aS'multimodal tms'
p777
aS'parallel network file system'
p778
aS'contactless payments'
p779
aS'partner customer support software'
p780
aS'self-test and fault isolation'
p781
aS'lrc'
p782
aS'smartphone'
p783
aS'wcdma'
p784
aS'cloud access security brokers'
p785
aS'statement of work'
p786
aS'massive open online course'
p787
aS'alternative delivery models'
p788
aS'enterprise asset management'
p789
aS'through-silicon vias'
p790
aS'ccow'
p791
aS'expert system'
p792
aS'level'
p793
aS'social computing'
p794
aS'cmip over llc'
p795
aS'dif'
p796
aS'marketing mix and product portfolio optimization'
p797
aS'ultrabook'
p798
aS'metadata'
p799
aS'standards'
p800
aS'application management outsourcing'
p801
aS'enterprise social software'
p802
aS'ptt poc'
p803
aS'cose'
p804
aS'nac'
p805
aS'pmo'
p806
aS'software maintenance'
p807
aS'problem management'
p808
aS'internet wan'
p809
aS'corba'
p810
aS'data quality software as a service'
p811
aS'repository'
p812
aS'data monetization'
p813
aS'smart card'
p814
aS'device-embedded biometric authentication'
p815
aS'multitouch'
p816
aS'health insurance portability and accountability act'
p817
aS'messaging device'
p818
aS'scada'
p819
aS'social profile'
p820
aS'storage resource management'
p821
aS'total service revenue'
p822
aS'system architecture evolution'
p823
aS'cost to serve'
p824
aS'workflow management'
p825
aS'vowlan'
p826
aS'wips'
p827
aS'fixed-line carrier'
p828
aS'wimedia alliance'
p829
aS'super video graphics array'
p830
aS'blade servers'
p831
aS'galileo'
p832
aS'secure sockets layer'
p833
aS'ip telephony'
p834
aS'it/ot alignment'
p835
aS'software development'
p836
aS'java platform, micro edition'
p837
aS'checksum'
p838
aS'cmyk'
p839
aS'throughput'
p840
aS'bom'
p841
aS'cloud engineering'
p842
aS'data loss protection'
p843
aS'windowing'
p844
aS'call processing'
p845
aS'ipa'
p846
aS'dual-attached station'
p847
aS'integrated marketing management'
p848
aS'wireless intrusion prevention system'
p849
aS'data center storage encryption'
p850
aS'web atm'
p851
aS'fbc'
p852
aS'consumer web mashups'
p853
aS'system integrator'
p854
aS'workstations'
p855
aS'fbi'
p856
aS'plm'
p857
aS'pmps'
p858
aS'low-cost it'
p859
aS'public-key cryptography'
p860
aS'simulation routines'
p861
aS'mss'
p862
aS'it service support management tools'
p863
aS'msp'
p864
aS'crowdsourcing'
p865
aS'knowledge architect'
p866
aS'iphone'
p867
aS'contingent workforce'
p868
aS'line dot matrix'
p869
aS'collective competency'
p870
aS'advanced distribution management systems'
p871
aS'automatic storage tiering'
p872
aS'conductor'
p873
aS'object class'
p874
aS'business continuity management planning'
p875
aS'advocacy marketing'
p876
aS'portfolio management'
p877
aS'serial inkjet'
p878
aS'business process'
p879
aS'digital cross-connect'
p880
aS'wired equivalent privacy'
p881
aS'time division multiple access'
p882
aS'social web'
p883
aS'car'
p884
aS'olfactory interfaces'
p885
aS'portal fabric'
p886
aS'cam'
p887
aS'cac'
p888
aS'point of sale'
p889
aS'cisc'
p890
aS'telematics'
p891
aS'mobile pc'
p892
aS'wi-fi alliance'
p893
aS'claims analytics'
p894
aS'spp'
p895
aS'service-level management'
p896
aS'lead management'
p897
aS'smart mfp'
p898
aS'car connectivity consortium'
p899
aS'social profiles'
p900
aS'home-area network'
p901
aS'contact center workforce optimization'
p902
aS'dxc'
p903
aS'consumer telepresence'
p904
aS'fpd'
p905
aS'redundancy'
p906
aS'net-liberated organization'
p907
aS'captive centers'
p908
aS'event, fault and log management'
p909
aS'personal information manager'
p910
aS'fpy'
p911
aS'senpai'
p912
aS'rich communication suite'
p913
aS'r-uim'
p914
aS'procurement network'
p915
aS'operational technology'
p916
aS'virtual private network'
p917
aS'ssp'
p918
aS'software as a service'
p919
aS'location-based marketing'
p920
aS'metadata and data modeling tools'
p921
aS'transfer rate'
p922
aS'partner relationship management'
p923
aS'alliance and relationship management'
p924
aS'connect time'
p925
aS'manufacturing execution system'
p926
aS'deva'
p927
aS'personal access system'
p928
aS'sp'
p929
aS'fiber optics'
p930
aS'bcmp'
p931
aS'ebpp'
p932
aS'data dependency mapping'
p933
aS'10g-pon'
p934
aS'manufacturing scheduling'
p935
aS'in erlangs'
p936
aS'skills-based management'
p937
aS'service parts planning'
p938
aS'wocs'
p939
aS'web tv'
p940
aS'customer relationship management'
p941
aS'financial analytical applications'
p942
aS'doja'
p943
aS'alm paas'
p944
aS'ground segment'
p945
aS'cold'
p946
aS'cloud communications service provider'
p947
aS'ieee'
p948
aS'single instruction, multiple data'
p949
aS'dab+'
p950
aS'gtc'
p951
aS'frequency reuse'
p952
aS'vtl'
p953
aS'jit'
p954
aS'commerce experiences'
p955
aS'technology-enabled relationship management'
p956
aS'managed print services'
p957
aS'content targeting'
p958
aS'automated teller machine'
p959
aS'message broker'
p960
aS'noc'
p961
aS'dna logic'
p962
aS'flexible manufacturing system'
p963
aS'ppm'
p964
aS'wide-area network optimization controllers'
p965
aS'storage area network'
p966
aS'term'
p967
aS'social media tools'
p968
aS'ip multimedia subsystem'
p969
aS'coder/decoder'
p970
aS'on-device portal'
p971
aS'n-channel metal-oxide semiconductor'
p972
aS'collaborative commerce'
p973
aS'sdh/sonet'
p974
aS'mobile drm'
p975
aS'application sharing'
p976
aS'multimedia markup language'
p977
aS'network inventory'
p978
aS'it industrialization'
p979
aS'voice response system'
p980
aS'ea'
p981
aS'context-enriched content'
p982
aS'care delivery organization'
p983
aS'computer emergency response team'
p984
aS'predictive modeling solutions'
p985
aS'ep'
p986
aS'american national standards institute'
p987
aS'copics'
p988
aS'marketing content management'
p989
aS'return on investment'
p990
aS'gamification'
p991
aS'mobile payment'
p992
aS'foreign/global trade compliance'
p993
aS'internet'
p994
aS'ble'
p995
aS'computer-aided patient-entered medical history'
p996
aS'knowledge sharing'
p997
aS'automated system operations'
p998
aS'syncml'
p999
aS'cissp'
p1000
aS'shojinka'
p1001
aS'business analytics'
p1002
aS'oasis'
p1003
aS'social bpm'
p1004
aS'byte'
p1005
aS'redundant array of independent disks'
p1006
aS'advanced fraud detection and analysis technologies'
p1007
aS'data-driven marketing'
p1008
aS'dynamic data masking'
p1009
aS'hybrid unified communications and collaboration'
p1010
aS'geothermal cooling for data centers'
p1011
aS'ensemble interactions'
p1012
aS'basic trading area'
p1013
aS'advanced shipment notice'
p1014
aS'solid-state appliances'
p1015
aS'entitlement management'
p1016
aS'instructor-led practical training'
p1017
aS'community of practice'
p1018
aS'domain name'
p1019
aS'wlan'
p1020
aS'revenue'
p1021
aS'clickstream analysis'
p1022
aS'software configuration management'
p1023
aS'wigig'
p1024
aS'information capabilities framework'
p1025
aS'voice switching, control and applications'
p1026
aS'portable wireless'
p1027
aS'network interface card'
p1028
aS'relationship manager'
p1029
aS'iam'
p1030
aS'ian'
p1031
aS'building-integrated photovoltaics'
p1032
aS'iae'
p1033
aS'ci'
p1034
aS'fms'
p1035
aS'enterprise architecture'
p1036
aS'network management center'
p1037
aS'affective computing'
p1038
aS'vbx'
p1039
aS'iaas'
p1040
aS'fmc'
p1041
aS'processor emulation'
p1042
aS'hub'
p1043
aS'e-prescribing'
p1044
aS'field service management'
p1045
aS'mpeg-4 advanced video coding'
p1046
aS'applicant tracking systems'
p1047
aS'managed object'
p1048
aS'broadcast'
p1049
aS'narrowband channels'
p1050
aS'clinical resource management'
p1051
aS'synchronous transfer mode'
p1052
aS'applet'
p1053
aS'voice mail'
p1054
aS'biochips'
p1055
aS'content, communications and collaboration'
p1056
aS'closed-loop mrp'
p1057
aS'browser'
p1058
aS'customer information management and application'
p1059
aS'storage management software'
p1060
aS'san'
p1061
aS'sam'
p1062
aS'prm'
p1063
aS'seven wastes'
p1064
aS'dast'
p1065
aS'continuous data protection'
p1066
aS'customer self-service and support'
p1067
aS'act i'
p1068
aS'sax'
p1069
aS'concurrent backup'
p1070
aS'dasd'
p1071
aS'knowledge base'
p1072
aS'itsd'
p1073
aS'network configuration and change management'
p1074
aS'materials management information system'
p1075
aS'structure, scripting, populating and channel outputs'
p1076
aS'enterprise application outsourcing'
p1077
aS'b2b web services'
p1078
aS'college of healthcare information management executives'
p1079
aS'earth station'
p1080
aS'information governance'
p1081
aS'product portfolio and program management'
p1082
aS'wcm'
p1083
aS'switching'
p1084
aS'channel'
p1085
aS'return on equity'
p1086
aS'cifs'
p1087
aS'competitive intelligence'
p1088
aS'buffer'
p1089
aS'small-to-midsize enterprise'
p1090
aS'cdma2000'
p1091
aS'authentication technologies'
p1092
aS'fcc'
p1093
aS'digital forensics'
p1094
aS'fddi'
p1095
aS'data deduplication'
p1096
aS'consumer voice services'
p1097
aS'open data'
p1098
aS'intercompany multimodal unified communications'
p1099
aS'kurtz-under band'
p1100
aS'gallium nitride'
p1101
aS'distributed function'
p1102
aS'soho'
p1103
aS'advertisement action'
p1104
aS'knowledge use'
p1105
aS'nlp'
p1106
aS'qos'
p1107
aS'wi-fi'
p1108
aS'very small aperture terminal'
p1109
aS'instructor-led training in the classroom'
p1110
aS'synchronous'
p1111
aS'context delivery architecture'
p1112
aS'common object request broker architecture'
p1113
aS'ipaas'
p1114
aS'message warehouse'
p1115
aS'xml'
p1116
aS'print markets and management hardware'
p1117
aS'liquefied natural gas'
p1118
aS'asynchronous transmission'
p1119
aS'digital rights management'
p1120
aS'content provider'
p1121
aS'manufacturing planning'
p1122
aS'automated testing'
p1123
aS'knowledge access'
p1124
aS'longitudinal redundancy check'
p1125
aS'store-and-forward voice'
p1126
aS'digitize'
p1127
aS'application infrastructure'
p1128
aS'bpm pure-play'
p1129
aS'ssl'
p1130
aS'sso'
p1131
aS'ssn'
p1132
aS'framing'
p1133
aS'fast-packet switching'
p1134
aS'data lake'
p1135
aS'sub-11ghz proprietary bwa'
p1136
aS'geo'
p1137
aS'cif'
p1138
aS'electronic customer relationship management'
p1139
aS'pims'
p1140
aS'knowledge assets'
p1141
aS'rolap'
p1142
aS'object-oriented analysis and design'
p1143
aS'c++'
p1144
aS'sub-voice-grade channel'
p1145
aS'continuous process improvement'
p1146
aS'entity resolution and analysis'
p1147
aS'mobile centrex'
p1148
aS'cpe external stand-alone modem'
p1149
aS'corporate property management software'
p1150
aS'critical ratio'
p1151
aS'silicon anode batteries'
p1152
aS'wiki'
p1153
aS'kernel'
p1154
aS'low frequency'
p1155
aS'multichannel multipoint distribution service'
p1156
aS'burst'
p1157
aS'application life cycle management platform as a service'
p1158
aS'image recognition'
p1159
aS'blanking interval'
p1160
aS'lng'
p1161
aS'utm'
p1162
aS'back-end'
p1163
aS'defects per unit'
p1164
aS'best-in-class'
p1165
aS'direct channel'
p1166
aS'mesh network'
p1167
aS'ip seat license'
p1168
aS'biometric atms'
p1169
aS'si'
p1170
aS'takt time'
p1171
aS'application infrastructure suite'
p1172
aS'consumer broadband connections'
p1173
aS'line of business'
p1174
aS'transmedia'
p1175
aS'social network analysis'
p1176
aS'cloud service elasticity'
p1177
aS'network virtual terminal'
p1178
aS'computer-aided design and drafting'
p1179
aS'caas'
p1180
aS'base transceiver station'
p1181
aS'hedis'
p1182
aS'parabolic trough'
p1183
aS'3d tv services'
p1184
aS'uc'
p1185
aS'cd-rw'
p1186
aS'pcs'
p1187
aS'mobile pc odms'
p1188
aS'fttp'
p1189
aS'firewall'
p1190
aS'vdsl'
p1191
aS'hvd'
p1192
aS'pop'
p1193
aS'enterprise information architecture'
p1194
aS'seiban'
p1195
aS'data mining'
p1196
aS'binary runtime environment for wireless'
p1197
aS'ftth'
p1198
aS'internet sales outlet'
p1199
aS'integration platform as a service'
p1200
aS'cqi'
p1201
aS'backbone router'
p1202
aS'encryption'
p1203
aS'hierarchical storage management'
p1204
aS'internal rate of return'
p1205
aS'netbooks'
p1206
aS'touchpoint'
p1207
aS'subscriber'
p1208
aS'i/o bound'
p1209
aS'second generation'
p1210
aS'line impact dot matrix'
p1211
aS's-band'
p1212
aS'unified communications and collaboration'
p1213
aS'c-commerce'
p1214
aS'quality of service'
p1215
aS'synchronized bills of materials'
p1216
aS'wireless ethernet compatibility alliance'
p1217
aS'daisy-chaining'
p1218
aS'virtual tape library'
p1219
aS'climate-driven forecasting'
p1220
aS'cpemh'
p1221
aS'encapsulation'
p1222
aS'baseband'
p1223
aS'alternative card networks'
p1224
aS'class of service'
p1225
aS'carrier network infrastructure'
p1226
aS'case'
p1227
aS'enterprise nervous system'
p1228
aS'data ops'
p1229
aS'critical-path scheduling'
p1230
aS'iso 9000'
p1231
aS'wi-fi protected access'
p1232
aS'eia'
p1233
aS'marketing performance management'
p1234
aS'check digit'
p1235
aS'vendor risk management'
p1236
aS'cpe internal modem'
p1237
aS'tunneling'
p1238
aS'eim'
p1239
aS'application development'
p1240
aS'no-email initiatives'
p1241
aS'e-discovery software'
p1242
aS'integrated carrier'
p1243
aS'uxp'
p1244
aS'third-generation partnership project'
p1245
aS'database encryption'
p1246
aS'green belt'
p1247
aS'it infrastructure utility'
p1248
aS'content marketing platforms'
p1249
aS'dye-sensitized solar cells'
p1250
aS'ivr'
p1251
aS'biometric characteristic'
p1252
aS'application service provider'
p1253
aS'comprehensive production architecture'
p1254
aS'ascii'
p1255
aS'composite application'
p1256
aS'cpe business dsl router with embedded dsl modem'
p1257
aS'pas'
p1258
aS'pat'
p1259
aS'kano model'
p1260
aS'html'
p1261
aS'pad'
p1262
aS'pclm'
p1263
aS'binary table'
p1264
aS'web'
p1265
aS'flexible media and conferencing switching'
p1266
aS'network dynamic functionality'
p1267
aS'picocell'
p1268
aS'digital marketing hub'
p1269
aS'virtual matrix organization'
p1270
aS'korea communications commission'
p1271
aS'hybrid storage gateway appliance'
p1272
aS'rfid'
p1273
aS'web server'
p1274
aS'transceiver'
p1275
aS'f-commerce'
p1276
aS'source encoding'
p1277
aS'it operations'
p1278
aS'claims management solutions'
p1279
aS'wpa'
p1280
aS'amqp'
p1281
aS'signal-to noise ratio'
p1282
aS'network sharing'
p1283
aS'dual mode'
p1284
aS'knowledge capture'
p1285
aS'ccs'
p1286
aS'ccm'
p1287
aS'it services'
p1288
aS'ccd'
p1289
aS'legacy application or system'
p1290
aS'ccc'
p1291
aS'digital marketing'
p1292
aS'internet protocol address'
p1293
aS'application obfuscation'
p1294
aS'mobile cloud synchronization'
p1295
aS'voice over wireless lan'
p1296
aS'shop floor control'
p1297
aS'clamshell'
p1298
aS'emergent structures'
p1299
aS'database activity monitoring'
p1300
aS'communities'
p1301
aS'message switching'
p1302
aS'advanced distribution protection and restoration devices'
p1303
aS'change management'
p1304
aS'pox'
p1305
aS'partial document encryption'
p1306
aS'nas'
p1307
aS'1g or analog'
p1308
aS'integrated digital enhanced network'
p1309
aS'blog'
p1310
aS'blob'
p1311
aS'process manufacturing'
p1312
aS'clustered system'
p1313
aS'ami'
p1314
aS'psk'
p1315
aS'local modifications memory'
p1316
aS'amo'
p1317
aS'document management'
p1318
aS'psa'
p1319
aS'amd'
p1320
aS'amg'
p1321
aS'pos'
p1322
aS'sccm'
p1323
aS'3d photovoltaic devices'
p1324
aS'call center'
p1325
aS'it cost optimization'
p1326
aS'cloud management platforms'
p1327
aS'digital dial tone'
p1328
aS'business rule engines'
p1329
aS'spaghetti chart'
p1330
aS'customer experience'
p1331
aS'zle'
p1332
aS'applications portfolio analysis'
p1333
aS'wbs'
p1334
aS'concurrent use'
p1335
aS'collective'
p1336
aS'multichannel feedback management'
p1337
aS'programmable logic controller'
p1338
aS'line load control'
p1339
aS'regulatory compliance'
p1340
aS'hand-off'
p1341
aS'application, channel, technology and industry'
p1342
aS'product cost management'
p1343
aS'packet control unit'
p1344
aS'network-attached storage'
p1345
aS'personal digital cellular'
p1346
aS'direct chip cooling'
p1347
aS'mobile deep packet inspection'
p1348
aS'mooc'
p1349
aS'communications service provider'
p1350
aS'loopback'
p1351
aS'service provider routers and switches'
p1352
aS'extranet'
p1353
aS'signaling gateways/ip-stps'
p1354
aS'hcpcs'
p1355
aS'ddl'
p1356
aS'programming language'
p1357
aS'context-aware security'
p1358
aS'virtual assistant'
p1359
aS'tdm'
p1360
aS'inspect'
p1361
aS'compliance unit'
p1362
aS'sometimes ymck or \xe2\x80\x9cprocess color printing\xe2\x80\x9d'
p1363
aS'fibre channel over ethernet'
p1364
aS'roaming'
p1365
aS'it decision support'
p1366
aS'server virtualization infrastructure'
p1367
aS'sra'
p1368
aS'head-mounted displays'
p1369
aS'lifepo4'
p1370
aS'aco'
p1371
aS'srm'
p1372
aS'acr'
p1373
aS'workforce analytics'
p1374
aS'converged network services'
p1375
aS'component object library'
p1376
aS'electronic prescribing'
p1377
aS'server appliance'
p1378
aS'enhanced e-books'
p1379
aS'aol instant messenger'
p1380
aS'unified communications products'
p1381
aS'enterprise performance management'
p1382
aS'protocol conversion'
p1383
aS'windows live messenger'
p1384
aS'desktop outsourcing'
p1385
aS'mobile device management'
p1386
aS'ehr'
p1387
aS'quality of storage service'
p1388
aS'64-bit windows server'
p1389
aS'green money'
p1390
aS'ipv6'
p1391
aS'value-added service'
p1392
aS'wam'
p1393
aS'high-performance computing'
p1394
aS'service-level agreement'
p1395
aS'emerging data protection schemes'
p1396
aS'process control'
p1397
aS'energy trading and risk management'
p1398
aS'application program'
p1399
aS'oneapi'
p1400
aS'knowledge representation'
p1401
aS'sled'
p1402
aS'podcast'
p1403
aS'web e-mail'
p1404
aS'pull'
p1405
aS'nanotube'
p1406
aS'dsl/cable-sharing residential/small-office gateway/router'
p1407
aS'social crm'
p1408
aS'activity-based management'
p1409
aS'clinical information modeling initiative'
p1410
aS'assp'
p1411
aS'aa'
p1412
aS'ad'
p1413
aS'cbd'
p1414
aS'ai'
p1415
aS'dash7'
p1416
aS'cbr'
p1417
aS'ap'
p1418
aS'as'
p1419
aS'cbq'
p1420
aS'non-value-adding'
p1421
aS'digital multimedia broadcasting'
p1422
aS'micro-marketplace'
p1423
aS'process analytical technology'
p1424
aS'introspection'
p1425
aS'computer-telephony integration'
p1426
aS'diagnostic analytics'
p1427
aS'mobile satellite services'
p1428
aS'compare operational readiness evaluation'
p1429
aS'k-map'
p1430
aS'hybrid electric vehicles'
p1431
aS'value-adding'
p1432
aS'network fault monitoring tools'
p1433
aS'amoled'
p1434
aS'connected devices'
p1435
aS'message format'
p1436
aS'e-procurement'
p1437
aS'bimodal it'
p1438
aS'cdma2000 1x rtt'
p1439
aS'integrated delivery system'
p1440
aS'cloud-based grid computing'
p1441
aS'on-device monitoring'
p1442
aS'event-driven architecture'
p1443
aS'teledensity'
p1444
aS'cloud encryption gateways'
p1445
aS'cpi'
p1446
aS'cpm'
p1447
aS'cpa'
p1448
aS'cpc'
p1449
aS'cpe'
p1450
aS'master content management'
p1451
aS'wan performance monitor'
p1452
aS'object-oriented programming'
p1453
aS'cpp'
p1454
aS'cpq'
p1455
aS'cpr'
p1456
aS'grid computing without using public cloud computers'
p1457
aS'cpt'
p1458
aS'cpu'
p1459
aS'scm'
p1460
aS'bapi'
p1461
aS'satellite communications operator'
p1462
aS'multipurpose internet messaging extensions'
p1463
aS'roi'
p1464
aS'point of service'
p1465
aS'sms'
p1466
aS'emcg'
p1467
aS'extreme low-energy servers'
p1468
aS'location-based advertising'
p1469
aS'commercial telematics'
p1470
aS'ptr'
p1471
aS'scr'
p1472
aS'software development kit'
p1473
aS'third generation'
p1474
aS'digital commerce'
p1475
aS'dual-view displays'
p1476
aS'cdns'
p1477
aS'risk management and compliance consulting services'
p1478
aS'weak or strong signal'
p1479
aS'dsm'
p1480
aS'data center bridging'
p1481
aS'advanced message queuing protocol'
p1482
aS'patient care management'
p1483
aS'rack unit'
p1484
aS'smed'
p1485
aS'mpm'
p1486
aS'single-mode fiber'
p1487
aS'computing appliance'
p1488
aS'mps'
p1489
aS'falm'
p1490
aS'software asset management'
p1491
aS'absorption chillers'
p1492
aS'ius'
p1493
aS'bottleneck'
p1494
aS'carrier system'
p1495
aS'bluetooth 4.0'
p1496
aS'frequency-hopping multiple access'
p1497
aS'field service management software'
p1498
aS'american medical informatics association'
p1499
aS'ip-enabled pbx'
p1500
aS'hype cycle'
p1501
aS'mapreduce'
p1502
aS'continuity check'
p1503
aS'smb'
p1504
aS'plain old xml'
p1505
aS'client/server'
p1506
aS'knowledge capital'
p1507
aS'advanced clinical research information systems'
p1508
aS'closed-loop material requirements planning'
p1509
aS'configuration management'
p1510
aS'jidoka'
p1511
aS'commerce platform servers'
p1512
aS'contract life cycle management'
p1513
aS'mdm services'
p1514
aS'batch processing'
p1515
aS'service management agreement'
p1516
aS'transcoding'
p1517
aS'key performance indicator'
p1518
aS'abc'
p1519
aS'supervisory control and data acquisition'
p1520
aS'interactive voice response'
p1521
aS'content aggregation'
p1522
aS'solution portfolio'
p1523
aS'abm'
p1524
aS'digital customer'
p1525
aS'screen popping'
p1526
aS'it operations management'
p1527
aS'1xrtt'
p1528
aS'iltc'
p1529
aS'specification, tracking, evaluation, production'
p1530
aS'wibro'
p1531
aS'ip-enabled pbx/kts ip extension line'
p1532
aS'e-mobility'
p1533
aS'core storage management'
p1534
aS'cpoe'
p1535
aS'controlled medical vocabulary'
p1536
aS'worldwide interoperability for microwave access'
p1537
aS'chief knowledge officer'
p1538
aS'behavior learning engines'
p1539
aS'satellite navigation systems'
p1540
aS'static application security testing'
p1541
aS'femtocell'
p1542
aS'compliance'
p1543
aS'transponder'
p1544
aS'shared services or shared services center'
p1545
aS'network on chip'
p1546
aS'track and trace'
p1547
aS'enterprise mobile communications gateway'
p1548
aS'lurker'
p1549
aS'electronic waste'
p1550
aS'advanced web services'
p1551
aS'immersive learning environments'
p1552
aS'network code of practice'
p1553
aS'configure, price, quote'
p1554
aS'femtocells'
p1555
aS'appliances'
p1556
aS'java platform ad tools'
p1557
aS'contactless card'
p1558
aS'e-forms'
p1559
aS'development and integration services'
p1560
aS'cable service provider'
p1561
aS'imt-2000'
p1562
aS'postpaid connection'
p1563
aS'customer gateways'
p1564
aS'integrated development environment'
p1565
aS'dynamic routing'
p1566
aS'social content'
p1567
aS'sbm'
p1568
aS'windows client'
p1569
aS'authorization'
p1570
aS'gross new connections'
p1571
aS'ip-service control points'
p1572
aS'performance-driven culture'
p1573
aS'near field communication'
p1574
aS'waste walk'
p1575
aS'international mobile telecommunications-2000'
p1576
aS'digital marketing strategy'
p1577
aS'vm'
p1578
aS'sfa (sales force automation) \xe2\x80\x94 direct sales'
p1579
aS'time division multiplexing'
p1580
aS'shadow it'
p1581
aS'identity-aware networks'
p1582
aS'pnfs'
p1583
aS'integration appliances'
p1584
aS'application software services'
p1585
aS'application modernization services'
p1586
aS'round-trip time'
p1587
aS'eh&s'
p1588
aS'satellite broadcasting operator'
p1589
aS'rotary heat exchanger'
p1590
aS'integrated definition methodology'
p1591
aS'visual basic'
p1592
aS'software failure detection and recovery'
p1593
aS'isp'
p1594
aS'carrier frequency'
p1595
aS'country code'
p1596
aS'cyber incident response team'
p1597
aS'spectrum harmonization'
p1598
aS'mobile portal'
p1599
aS'information'
p1600
aS'guard interval'
p1601
aS'object data model'
p1602
aS'csd'
p1603
aS'cpr system'
p1604
aS'csf'
p1605
aS'value-added reseller'
p1606
aS'csb'
p1607
aS'campaign management system'
p1608
aS'tdma'
p1609
aS'quantum computer'
p1610
aS'er&a'
p1611
aS'csu'
p1612
aS'csp'
p1613
aS'css'
p1614
aS'e-signature'
p1615
aS'fp'
p1616
aS'supply chain segmentation'
p1617
aS'distribution requirements planning'
p1618
aS'computer-based physician order entry'
p1619
aS'vlan'
p1620
aS'social publishing'
p1621
aS'infrared data association'
p1622
aS'additive manufacturing'
p1623
aS'bioinformatics'
p1624
aS'm-commerce'
p1625
aS'distributed database'
p1626
aS'fm'
p1627
aS'fixed-mobile convergence'
p1628
aS'business continuity planning'
p1629
aS'in-rack cooling'
p1630
aS'co-creation'
p1631
aS'3d flat-panel tvs and displays'
p1632
aS'secure hypertext transport protocol'
p1633
aS'knowledge users'
p1634
aS'itg'
p1635
aS'hypertext'
p1636
aS'sell side'
p1637
aS'bicc'
p1638
aS'media gateways'
p1639
aS'wearable computer'
p1640
aS'windows ce'
p1641
aS'computer-integrated manufacturing'
p1642
aS'itu'
p1643
aS'multimedia messaging service'
p1644
aS'marketing resource management'
p1645
aS'own design manufacturer'
p1646
aS'technical license management'
p1647
aS'application release automation'
p1648
aS'tsvs'
p1649
aS'fuel cell'
p1650
aS'customer engagement center'
p1651
aS'cpm suites'
p1652
aS'system and server evaluation model'
p1653
aS'pcu'
p1654
aS'supply chain management'
p1655
aS'pco'
p1656
aS'pcm'
p1657
aS'private exchange'
p1658
aS'microinverters'
p1659
aS'content aggregator'
p1660
aS'software change and configuration management'
p1661
aS'cec'
p1662
aS'website experience analytics'
p1663
aS'cem'
p1664
aS'distributed database management system'
p1665
aS'brand extension'
p1666
aS'average speed of answer'
p1667
aS'framework'
p1668
aS'wireless local-area network'
p1669
aS'byte code'
p1670
aS'personal access communication services'
p1671
aS'store-and-forward manager'
p1672
aS'telecommunications services'
p1673
aS'enterprise solutions'
p1674
aS'beta testing'
p1675
aS'defects per opportunity'
p1676
aS'pam'
p1677
aS'2g'
p1678
aS'cadd'
p1679
aS'volumetric displays'
p1680
aS'gui'
p1681
aS'commercial parallel processing'
p1682
aS'cloud email'
p1683
aS'iden'
p1684
aS'paper size'
p1685
aS'knowledge management'
p1686
aS'idef'
p1687
aS'binary code'
p1688
aS'content and applications service provider'
p1689
aS'connected game handhelds'
p1690
aS'value stream'
p1691
aS'voice over internet protocol'
p1692
aS'marketing database system'
p1693
aS'healthcare infomediary'
p1694
aS'mobile virtual network enabler'
p1695
aS'base station controller'
p1696
aS'bill-of-materials'
p1697
aS'ftp'
p1698
aS'hr disintermediation'
p1699
aS'management services organization'
p1700
aS'dapp'
p1701
aS'moving picture experts group'
p1702
aS'design-to-demand'
p1703
aS'visual basic for applications'
p1704
aS'limited disclosure technology'
p1705
aS'digital workplace'
p1706
aS'statistical time-division multiplexing'
p1707
aS'asp'
p1708
aS'privacy management tools'
p1709
aS'mms'
p1710
aS'enhanced observed time difference'
p1711
aS'asc'
p1712
aS'asa'
p1713
aS'sam tools'
p1714
aS'cookie'
p1715
aS'conditioning'
p1716
aS'aso'
p1717
aS'asn'
p1718
aS'knowledge content owners'
p1719
aS'extensible authentication protocol'
p1720
aS'core banking system'
p1721
aS'client computing hardware services'
p1722
aS'rack'
p1723
aS'connection admission control'
p1724
aS'wll'
p1725
aS'fcoe'
p1726
aS'circuit'
p1727
aS'cdma'
p1728
aS'business process as a service'
p1729
aS'valueops'
p1730
aS'stdm'
p1731
aS'structural change'
p1732
aS'motion jpeg'
p1733
aS'dab'
p1734
aS'international mobile subscriber identity'
p1735
aS'sales analytics'
p1736
aS'metrication'
p1737
aS'contact database'
p1738
aS'function point'
p1739
aS'phr'
p1740
aS'cost per gross add'
p1741
aS'cascading faults'
p1742
aS'enterprise information management'
p1743
aS'dfx'
p1744
aS'svga'
p1745
aS'mood recognition'
p1746
aS'medical management'
p1747
aS'backhaul'
p1748
aS'proxy servers'
p1749
aS'business process analysis tools'
p1750
aS'cfd'
p1751
aS'mobile and wireless infrastructure software platforms'
p1752
aS'gps'
p1753
aS'single-image mode'
p1754
aS'etsi'
p1755
aS'selector'
p1756
aS'consumer digital rights management'
p1757
aS'mobile/wireless portal'
p1758
aS'learning stack'
p1759
aS'lan bridging'
p1760
aS'marketing service providers'
p1761
aS'synchronous network'
p1762
aS'switching center'
p1763
aS'voice encryption'
p1764
aS'dth'
p1765
aS'federated search'
p1766
aS'stm'
p1767
aS'agile neorad'
p1768
aS'sales force automation'
p1769
aS'internet telephony'
p1770
aS'packet-switched network'
p1771
aS'photonic crystal displays'
p1772
aS'continuous integration'
p1773
aS'stickiness'
p1774
aS'business process modeling'
p1775
aS'discrete manufacturing'
p1776
aS'wdm-pon'
p1777
aS'3d printing'
p1778
aS'quad-band'
p1779
aS'return on competitiveness'
p1780
aS'enhanced network delivery'
p1781
aS'qr codes'
p1782
aS'common internet file system'
p1783
aS'internet of things'
p1784
aS'network database'
p1785
aS'predictive modeling'
p1786
aS'digital loopback'
p1787
aS'semi-mobile wireless'
p1788
aS'efm'
p1789
aS'custom key set'
p1790
aS'telephony-centric uc approach'
p1791
aS'peer-to-peer'
p1792
aS'scpc'
p1793
aS'enterprise information archiving'
p1794
aS'coaxial cable'
p1795
aS'very high-speed digital subscriber lines'
p1796
aS'pull printing'
p1797
aS'social systems'
p1798
aS'ddvn'
p1799
aS'business process utilities'
p1800
aS'corporate performance management'
p1801
aS'health plan employer data and information set'
p1802
aS'mobile'
p1803
aS'raad'
p1804
aS'km'
p1805
aS'data center infrastructure management'
p1806
aS'screen sharing'
p1807
aS'wap forum'
p1808
aS'single large expensive disk'
p1809
aS'relational database management system'
p1810
aS'enterprise resource planning'
p1811
aS'media tablet'
p1812
aS'cdo'
p1813
aS'sspc'
p1814
aS'mobile browsers'
p1815
aS'grid computing'
p1816
aS'rtt'
p1817
aS'serverless printing'
p1818
aS'cdp'
p1819
aS'cdr'
p1820
aS'common public radio interface'
p1821
aS'circuit board'
p1822
aS'postmodern erp'
p1823
aS'data quality tools'
p1824
aS'bipv'
p1825
aS'big data'
p1826
aS'electronic data capture'
p1827
aS'sales enablement'
p1828
aS'wihd'
p1829
aS'sim toolkit'
p1830
aS'electronic signature'
p1831
aS'his'
p1832
aS'hit'
p1833
aS'radio network controller'
p1834
aS'very large-scale integration'
p1835
aS'model-driven packaged applications'
p1836
aS'it management services'
p1837
aS'finished branded product'
p1838
aS'fixed wireless'
p1839
aS'hie'
p1840
aS'subnet number'
p1841
aS'geospatial mashups'
p1842
aS'object-based middleware'
p1843
aS'space segment'
p1844
aS'money clouds'
p1845
aS'first pass yield'
p1846
aS'i/o'
p1847
aS'crp'
p1848
aS'tco'
p1849
aS'constant bit rate'
p1850
aS'supply chain planning'
p1851
aS'dtc'
p1852
aS'private branch exchange'
p1853
aS'symmetric multiprocessing'
p1854
aS'450-mm wafers'
p1855
aS'magnetic-ink character recognition'
p1856
aS'identity and access intelligence'
p1857
aS'crl'
p1858
aS'crm'
p1859
aS'semantic data model'
p1860
aS'solution architecture'
p1861
aS'consumer broadband services'
p1862
aS'telecom analytics'
p1863
aS'bundling'
p1864
aS'persona management'
p1865
aS'high performance workplace'
p1866
aS'ara'
p1867
aS'key process input variable'
p1868
aS'citizen developer'
p1869
aS'led'
p1870
aS'mapi'
p1871
aS'marketscope'
p1872
aS'terminal emulation'
p1873
aS'digitalization'
p1874
aS'flat panel display'
p1875
aS'document management hardware services'
p1876
aS'field sales/inside sales'
p1877
aS'ichat'
p1878
aS'data center outsourcing'
p1879
aS'semantic nets'
p1880
aS'failure modes effects analysis'
p1881
aS'spoofing'
p1882
aS'nonwireline cellular carrier'
p1883
aS'woa'
p1884
aS'dual-band network'
p1885
aS'imsi'
p1886
aS'wireless datagram protocol'
p1887
aS'revenue assurance'
p1888
aS'xslt'
p1889
aS'commercial'
p1890
aS'continuous moves'
p1891
aS'it infrastructure'
p1892
aS'scalability'
p1893
aS'wavelength division multiplexing passive optical network'
p1894
aS'digital ad operations platforms'
p1895
aS'enterprise unified communications infrastructure'
p1896
aS'accountable care organization'
p1897
aS'knowledge workplace'
p1898
aS'c'
aS'transparency'
p1899
aS'license'
p1900
aS'hyperlink'
p1901
aS'emss'
p1902
aS'geofencing'
p1903
aS'model-driven architecture'
p1904
aS'cyber library'
p1905
aS'voice portal'
p1906
aS'customer analytics'
p1907
aS'battery-powered radio frequency identification'
p1908
aS'context'
p1909
aS'total connections'
p1910
aS'net present value'
p1911
aS'it risk'
p1912
aS'pdc'
p1913
aS'pda'
p1914
aS'phmt'
p1915
aS'application performance monitoring'
p1916
aS'infocentric'
p1917
aS'smart antenna'
p1918
aS'acris'
p1919
aS'rad'
p1920
aS'community'
p1921
aS'sensor and rfid-based inventory and asset management infrastructure software'
p1922
aS'social analytics'
p1923
aS'linux'
p1924
aS'complex-event processing'
p1925
aS'nomadic wireless'
p1926
aS'hybrid thinking'
p1927
aS'it asset management'
p1928
aS'pv'
p1929
aS'dcim'
p1930
aS'px'
p1931
aS'distributed antenna system'
p1932
aS'open architecture'
p1933
aS'mobile application stores'
p1934
aS'managed file transfer'
p1935
aS'pm'
p1936
aS'java platform, enterprise edition'
p1937
aS'dumb terminal'
p1938
aS'terabit-per-second transport'
p1939
aS'advanced mobile phone service'
p1940
aS'extensible markup language'
p1941
aS'spectrum'
p1942
aS'gan'
p1943
aS'shrink-wrapped'
p1944
aS'network outsourcing'
p1945
aS'fuzzy logic'
p1946
aS'liquid crystal on silicon'
p1947
aS'table driven'
p1948
aS'current procedural terminology'
p1949
aS'sff-lr'
p1950
aS'common language infrastructure'
p1951
aS'mainframe'
p1952
aS'wave power'
p1953
aS'text retrieval'
p1954
aS'device resource management'
p1955
aS'critical path method or critical path management'
p1956
aS'spc'
p1957
aS'knowledge organization'
p1958
aS'vod'
p1959
aS'mobile earth station'
p1960
aS'hierarchical storage management and archive software'
p1961
aS'circuit grade'
p1962
aS'voc'
p1963
aS'hr shared-service-center tools'
p1964
aS'mobile satellite service'
p1965
aS'option analysis'
p1966
aS'network management'
p1967
aS'heterogeneous architecture'
p1968
aS'ad ops'
p1969
aS'clinical context object workgroup'
p1970
aS'computer output to laserdisc'
p1971
aS'aerial and digital imagery'
p1972
aS'object-oriented technology'
p1973
aS'ria'
p1974
aS'global positioning system'
p1975
aS'digital pathology scanners'
p1976
aS'data warehouse'
p1977
aS'variable bit rate'
p1978
aS'hot spot'
p1979
aS'gemba walk'
p1980
aS'qam'
p1981
aS'tag management'
p1982
aS'composition'
p1983
aS'lithium battery backup'
p1984
aS'magnetometer'
p1985
aS'attenuation'
p1986
aS'latency'
p1987
aS'certified network professional'
p1988
aS'single channel per carrier'
p1989
aS'retail digital signage'
p1990
aS'total access communications system'
p1991
aS'dgt'
p1992
aS'mips'
p1993
aS'language-oriented development environments'
p1994
aS'iam as a service'
p1995
aS'infonomics'
p1996
aS'server virtualization management'
p1997
aS'electronic health record'
p1998
aS'hosted virtual desktops'
p1999
aS'pnds'
p2000
aS'magic quadrant'
p2001
aS'edge'
p2002
aS'computer-aided software engineering'
p2003
aS'amps'
p2004
aS'geographic information system'
p2005
aS'business process management'
p2006
aS'content analytics'
p2007
aS'local multipoint distribution service'
p2008
aS'business process fusion'
p2009
aS'dark fiber'
p2010
aS'workforce management'
p2011
aS'mobile social networks'
p2012
aS'corporate website activity'
p2013
aS'simd'
p2014
aS'simm'
p2015
aS'home location register'
p2016
aS'amr'
p2017
aS'sc-fdma'
p2018
aS'java me'
p2019
aS'line of code'
p2020
aS'cug'
p2021
aS'lims'
p2022
aS'interoperable storage encryption'
p2023
aS'wireless hd'
p2024
aS'capable-to-promise'
p2025
aS'wim'
p2026
aS'java applet'
p2027
aS'vendor'
p2028
aS'mass collaboration'
p2029
aS'design thinking'
p2030
aS'bid'
p2031
aS'production information management system'
p2032
aS'pulse carrier'
p2033
aS'bia'
p2034
aS'basic input/output system'
p2035
aS'symmetric digital subscriber line'
p2036
aS'bit'
p2037
aS'defense advanced research projects agency'
p2038
aS'hydrogen fuel cell vehicles'
p2039
aS'cognitive radio'
p2040
aS'ip-pbx'
p2041
aS'activex'
p2042
aS'content awareness'
p2043
aS'health information exchange'
p2044
aS'ilpt'
p2045
aS'electro mobility'
p2046
aS'gray market'
p2047
aS'software oversight committee'
p2048
aS'code division multiple access'
p2049
aS'instant messaging'
p2050
aS'clipping'
p2051
aS'hardware maintenance and support services'
p2052
aS'haptics'
p2053
aS'ncop'
p2054
aS'java servlet'
p2055
aS'serial transmission'
p2056
aS'streaming'
p2057
aS'binary synchronous communications'
p2058
aS'ip multimedia subsystem session control layer'
p2059
aS'lean enterprise'
p2060
aS'consumer internet services'
p2061
aS'wired for management'
p2062
aS'broadband'
p2063
aS'saas'
p2064
aS'integration'
p2065
aS'folksonomy'
p2066
aS'vno'
p2067
aS'customer service and support'
p2068
aS'cross-docking'
p2069
aS'web services'
p2070
aS'multimode fiber'
p2071
aS'cgi'
p2072
aS'cgm'
p2073
aS'wap identity module'
p2074
aS'sfc'
p2075
aS'foma'
p2076
aS'bi'
p2077
aS'step'
p2078
aS'serial interface'
p2079
aS'chip design starts'
p2080
aS'network appliance'
p2081
aS'professional services administration'
p2082
aS'ids'
p2083
aS'c-band'
p2084
aS'idn'
p2085
aS'idl'
p2086
aS'idm'
p2087
aS'average inventory'
p2088
aS'messaging'
p2089
aS'ide'
p2090
aS'ida'
p2091
aS'next-generation telematics protocol'
p2092
aS'lithium iron phosphate'
p2093
aS'frequency band'
p2094
aS'bank tiers'
p2095
aS'nemawashi'
p2096
aS'search-based data discovery tools'
p2097
aS'shortest path first'
p2098
aS'product data management'
p2099
aS'common access card'
p2100
aS'sim card'
p2101
aS'global delivery'
p2102
aS'tethered remote access'
p2103
aS'clustering'
p2104
aS'mso'
p2105
aS'selective sourcing'
p2106
aS'handheld device markup language'
p2107
aS'spam'
p2108
aS'service inventory'
p2109
aS'vbscript'
p2110
aS'branded content management'
p2111
aS'demand forecasting'
p2112
aS'bios'
p2113
aS'message numbering'
p2114
aS'icd-10 adoption technology'
p2115
aS'liquid cooling'
p2116
aS'consumer-generated media'
p2117
aS'hybrid mpls'
p2118
aS'sdr'
p2119
aS'small office/home office'
p2120
aS'identity and access management'
p2121
aS'clicks and bricks'
p2122
aS'directory services'
p2123
aS'pwn'
p2124
aS'industrialized it services'
p2125
aS'line'
p2126
aS'pwm'
p2127
aS'digital network'
p2128
aS'sdk'
p2129
aS'ambient and glanceable displays'
p2130
aS'next-generation network'
p2131
aS'fdd'
p2132
aS'over the air'
p2133
aS'internet radio'
p2134
aS'middleware'
p2135
aS'systems administration management tools'
p2136
aS'cio'
p2137
aS'cim'
p2138
aS'sustainability management'
p2139
aS'asynchronous transfer mode'
p2140
aS'cir'
p2141
aS'nmt-f'
p2142
aS'nmos'
p2143
aS'cross-certification'
p2144
aS'self-describing messages'
p2145
aS'contextual presence'
p2146
aS'groupware'
p2147
aS'vsf'
p2148
aS'link redundancy level'
p2149
aS'product catalog'
p2150
aS'clock, clocking'
p2151
aS'operational resource management'
p2152
aS'organizational'
p2153
aS'common gateway interface'
p2154
aS'performance management'
p2155
aS'http 2.0'
p2156
aS'reliability, availability and serviceability'
p2157
aS'composite content applications'
p2158
aS'lights-out recovery operations management'
p2159
aS'financial footprint'
p2160
aS'heijunka'
p2161
aS'nap'
p2162
aS'codec'
p2163
aS'access point'
p2164
aS'nexus of forces'
p2165
aS'virtualization software'
p2166
aS'software support services'
p2167
aS'ar'
p2168
aS'extensible stylesheet language'
p2169
aS'removable user identity module'
p2170
aS'weca'
p2171
aS'combined heat and power'
p2172
aS'backbone'
p2173
aS'web conferencing and shared work spaces/team collaboration'
p2174
aS'ka-band'
p2175
aS'tms'
p2176
aS'hevs'
p2177
aS'thermal printing'
p2178
aS'social networking sites'
p2179
aS'product configurators'
p2180
aS'integrated services digital network'
p2181
aS'multitenancy'
p2182
aS'wafer'
p2183
aS'retail execution and monitoring'
p2184
aS'thermal transfer'
p2185
aS'overlay'
p2186
aS'serving area'
p2187
aS'clinical kiosks'
p2188
aS'ultra-high-speed broadband internet'
p2189
aS'packet assembler/disassembler'
p2190
aS'edc'
p2191
aS'eda'
p2192
aS'process management'
p2193
aS'coda'
p2194
aS'stock-keeping unit'
p2195
aS'risc'
p2196
aS'control objectives for information and related technology'
p2197
aS'social technologies'
p2198
aS'iamaas'
p2199
aS'voice browser'
p2200
aS'nagara'
p2201
aS'bar code marketing'
p2202
aS'molten salt energy storage'
p2203
aS'simple object access protocol'
p2204
aS'quality assurance'
p2205
aS'master data management'
p2206
aS'removable modules'
p2207
aS'soa governance technologies'
p2208
aS'ddm'
p2209
aS'kcc'
p2210
aS'tmg'
p2211
aS'gaze control'
p2212
aS'mous'
p2213
aS'skinless servers'
p2214
aS'web content management'
p2215
aS'vlr'
p2216
aS'dark data'
p2217
aS'managed network services'
p2218
aS'component object model'
p2219
aS'elastic multitenancy'
p2220
aS'high-temperature superconductivity'
p2221
aS'penetration testing'
p2222
aS'automatic restart'
p2223
aS'predictive analytics'
p2224
aS'corporate and major enterprise'
p2225
aS'microbrowser'
p2226
aS'virtual network operator'
p2227
aS'return on information technology'
p2228
aS'location-based services'
p2229
aS'application control'
p2230
aS'statistical multiplexing'
p2231
aS'odp'
p2232
aS'charge-coupled device'
p2233
aS'biomass'
p2234
aS'l-band'
p2235
aS'retirements'
p2236
aS'odm'
p2237
aS'download'
p2238
aS'switch-based storage virtualization'
p2239
aS'cloud services brokerage'
p2240
aS'click-through'
p2241
aS'mobile web applications'
p2242
aS'instruction set virtualization'
p2243
aS'multimedia'
p2244
aS'cell'
p2245
aS'architected, model-driven development'
p2246
aS'microprocessor'
p2247
aS'3g'
p2248
aS'node b'
p2249
aS'subnet mask'
p2250
aS'hdml'
p2251
aS'distributed computing'
p2252
aS'minutes of use'
p2253
aS'best-of-breed'
p2254
aS'4g standard'
p2255
aS'leo'
p2256
aS'sink'
p2257
aS'spf'
p2258
aS'home server'
p2259
aS'surface computers'
p2260
aS'adms'
p2261
aS'public cloud computing'
p2262
aS'vba'
p2263
aS'rfid reader'
p2264
aS'ctp'
p2265
aS'ctq'
p2266
aS'ctr'
p2267
aS'opportunity management system'
p2268
aS'ctx'
p2269
aS'vbr'
p2270
aS'cert'
p2271
aS'cloud security gateways'
p2272
aS'cae'
p2273
aS'rdm'
p2274
aS'cto'
p2275
aS'cti'
p2276
aS'huds'
p2277
aS'simplex'
p2278
aS'complementary metal-oxide semiconductor'
p2279
aS'peak transaction rate'
p2280
aS'aps'
p2281
aS'ngfws'
p2282
aS'information engineering'
p2283
aS'context-enriched services'
p2284
aS'external services provider'
p2285
aS'superserver'
p2286
aS'apm'
p2287
aS'apa'
p2288
aS'gateway'
p2289
aS'erasable paper printing systems'
p2290
aS'it governance'
p2291
aS'social media'
p2292
aS'power adaptive algorithms'
p2293
aS'touch-sensitive'
p2294
aS'total revenue'
p2295
aS'lightweight directory access protocol'
p2296
aS'devops'
p2297
aS'digital business'
p2298
aS'chp'
p2299
aS'highlight color'
p2300
aS'manufacturer'
p2301
aS'screening'
p2302
aS'consumerization'
p2303
aS'context-aware computing'
p2304
aS'simple workflow access protocol'
p2305
aS'hypertext markup language'
p2306
aS'high-speed color inkjet printing'
p2307
aS'finite loading'
p2308
aS'risk-adjusted value management'
p2309
aS'component-based development'
p2310
aS'super wi-fi'
p2311
aS'project management'
p2312
aS'data analysis and provider profiling'
p2313
aS'tuning'
p2314
aS'network intelligence'
p2315
aS'lte-a'
p2316
aS'control code'
p2317
aS'portals and user interaction tools'
p2318
aS'personal health record'
p2319
aS'speech recognition'
p2320
aS'protocol stack'
p2321
aS'automated vehicle locating'
p2322
aS'fiber to the premises'
p2323
aS'in-row cooling'
p2324
aS'directory access protocol'
p2325
aS'distributed tape for backup and archiving'
p2326
aS'subscriber identity module'
p2327
aS'quantum dot displays'
p2328
aS'build-operate-transfer'
p2329
aS'virtual desktop infrastructure'
p2330
aS'tcp'
p2331
aS'vendor-neutral'
p2332
aS'sip'
p2333
aS'block error rate'
p2334
aS'it/ot integration'
p2335
aS'liquid crystal display'
p2336
aS'packet switching'
p2337
aS'application architecture'
p2338
aS'object-oriented system'
p2339
aS'input/output'
p2340
aS'discussion forum'
p2341
aS'cladding'
p2342
aS'gemba'
p2343
aS'fiber to the home'
p2344
aS'network access control'
p2345
aS'activity stream'
p2346
aS'base station'
p2347
aS'single sign-on'
p2348
aS'retail sales'
p2349
aS'ku-band'
p2350
aS'self-service business intelligence'
p2351
aS'notebook'
p2352
aS'distributed version control system'
p2353
aS'phase-shift keying'
p2354
aS'human capital management'
p2355
aS'paas'
p2356
aS'ot'
p2357
aS'clear to send'
p2358
aS'forensic software'
p2359
aS'consumer network attached storage'
p2360
aS'wide-area network'
p2361
aS'database appliances'
p2362
aS'synchronization'
p2363
aS'voice application servers'
p2364
aS'job scheduling'
p2365
aS'contact center'
p2366
aS'voice endpoint'
p2367
aS'direct-access storage device'
p2368
aS'crm publishing'
p2369
aS'group buying'
p2370
aS'le'
p2371
aS'physical resource and infrastructure management tools'
p2372
aS'it services strategic sourcing'
p2373
aS'line loading'
p2374
aS'service catalog'
p2375
aS'virtual reality modeling language'
p2376
aS'multithreading'
p2377
aS'cyclic redundancy check'
p2378
aS'online transaction processing'
p2379
aS'contention'
p2380
aS'broadband wireless access'
p2381
aS'dam'
p2382
aS'cagr'
p2383
aS'load forecasting'
p2384
aS'business activity monitoring'
p2385
aS'advanced metering infrastructure'
p2386
aS'dap'
p2387
aS'physician contracting organization'
p2388
aS'das'
p2389
aS'common messaging calls'
p2390
aS'all-in-one'
p2391
aS'pico projector'
p2392
aS'subscriber acquisition cost'
p2393
aS'digital transformation consulting'
p2394
aS'design for six sigma'
p2395
aS'sio'
p2396
aS'mashups'
p2397
aS'augmented reality'
p2398
aS'public key'
p2399
aS'addressable tv advertising'
p2400
aS'protocol-transparent'
p2401
aS'kpi'
p2402
aS'kaizen'
p2403
aS'pal'
p2404
aS'federated application life cycle management'
p2405
aS'create, retrieve, update, delete'
p2406
aS'network performance monitoring tools'
p2407
aS'enterprise and public network'
p2408
aS'automated backup'
p2409
aS'enhanced messaging service'
p2410
aS'push-to-talk over cellular'
p2411
aS'hlr'
p2412
aS'location-aware applications'
p2413
aS'bluetooth'
p2414
aS'frequency'
p2415
aS'platform as a service'
p2416
aS'ras'
p2417
aS'video telepresence'
p2418
aS'crc'
p2419
aS'product cost and life cycle management'
p2420
aS'community cloud'
p2421
aS'xbrl'
p2422
aS'm2m'
p2423
aS'vendor management'
p2424
aS'lagging and leading key performance indicators'
p2425
aS'response time'
p2426
aS'factory scheduling'
p2427
aS'real time'
p2428
aS'tacs'
p2429
aS'thin client'
p2430
aS'phasor measurement units'
p2431
aS'ecm'
p2432
aS'collaborative product commerce'
p2433
aS'bwa'
p2434
aS'internet protocol version 6'
p2435
aS'multicore processor'
p2436
aS'regulatory'
p2437
aS'web integration servers'
p2438
aS'object request broker'
p2439
aS'accredited standards committee'
p2440
aS'internet service provider'
p2441
aS'competency center'
p2442
aS'satellite navigation solutions'
p2443
aS'brownout'
p2444
aS'tdr'
p2445
aS'itom'
p2446
aS'media objects'
p2447
aS'skinput'
p2448
aS'information architecture'
p2449
aS'product life cycle management'
p2450
aS'it services sourcing'
p2451
aS'network operating system'
p2452
aS'computational-fluid-dynamic'
p2453
aS'business process outsourcing'
p2454
aS'bill of lading'
p2455
aS'emotion detection'
p2456
aS'4k x 2k tv displays'
p2457
aS'neural net or neural network'
p2458
aS'outage management system'
p2459
aS'dye sublimation'
p2460
aS'cmms'
p2461
aS'rcs'
p2462
aS'sockets'
p2463
aS'consumer nas'
p2464
aS'customer communications management'
p2465
aS'poke-yoke'
p2466
aS'memristor'
p2467
aS'advanced analytics'
p2468
aS'agent portal solutions'
p2469
aS'social software'
p2470
aS'demand-driven value network'
p2471
aS'circuit-switched data'
p2472
aS'mobile high-definition link'
p2473
aS'statistical process control'
p2474
aS'data interchange format'
p2475
aS'codd\xe2\x80\x99s rule zero'
p2476
aS'sales to end users'
p2477
aS'comanagement processes'
p2478
aS'natural-language understanding'
p2479
aS'transducer'
p2480
aS'message feedback'
p2481
aS'demand signal repository'
p2482
aS'dock scheduling'
p2483
aS'hierarchical database'
p2484
aS'lowest common denominator'
p2485
aS'object instance'
p2486
aS'management consulting'
p2487
aS'dsscs'
p2488
aS'line balancing'
p2489
aS'irda'
p2490
aS'managed service provider'
p2491
aS'advanced planning and scheduling'
p2492
aS'mobile device management services'
p2493
aS'footfall analysis'
p2494
aS'network redundancy'
p2495
aS'assemble to order'
p2496
aS'trunk media gateways'
p2497
aS'digital commerce experience'
p2498
aS'backplane'
p2499
aS'graphical user interface'
p2500
aS'3d bioprinting'
p2501
aS'discussion database'
p2502
aS'sfdr'
p2503
aS'call detail recording'
p2504
aS'entry-level smartphone'
p2505
aS'predictive behavior analysis'
p2506
aS'binary large object'
p2507
aS'test data generator'
p2508
aS'sfm'
p2509
aS'backup/recovery software'
p2510
aS'application management'
p2511
aS'asset performance management'
p2512
aS'backbone network'
p2513
aS'cima'
p2514
aS'scrambler'
p2515
aS'connectionless'
p2516
aS'smart grid'
p2517
aS'url'
p2518
aS'personal communications services'
p2519
aS'cko'
p2520
aS'secret-key cryptography'
p2521
aS'automated payment tracking and reconciliation services'
p2522
aS'brew'
p2523
aS'integrated publishing architecture'
p2524
aS'kerfless wafering'
p2525
aS'sales-focused partner relationship management'
p2526
aS'integrated applications environment'
p2527
aS'sales configuration systems'
p2528
aS'self-relocating program'
p2529
aS'synchronous transmission'
p2530
aS'downlink'
p2531
aS'computing platform products'
p2532
aS'optimization routines'
p2533
aS'enterprise metadata management'
p2534
aS'it management'
p2535
aS'dbs'
p2536
aS'enterprise technology architecture'
p2537
aS'cell splitting'
p2538
aS'multipoint'
p2539
aS'secret key'
p2540
aS'knowledge'
p2541
aS'digital wallet'
p2542
aS'personal digital assistant'
p2543
aS'cache'
p2544
aS'application delivery controller'
p2545
aS'terminal'
p2546
aS'consent management'
p2547
aS'rasp'
p2548
aS'supply chain inventory visibility'
p2549
aS'backup server'
p2550
aS'continuous quality improvement'
p2551
aS'iptv'
p2552
aS'knowledge content specialists'
p2553
aS'category management'
p2554
aS'interoperability'
p2555
aS'perfection'
p2556
aS'operating system'
p2557
aS'directed speech recognition'
p2558
aS'dpu'
p2559
aS'knowledge audit'
p2560
aS'directorate general of telecommunications, taiwan'
p2561
aS'enhanced data rates for global evolution'
p2562
aS'folksonomies'
p2563
aS'qa'
p2564
aS'peak traffic'
p2565
aS'binary digit'
p2566
aS'loosely coupled multiprocessing'
p2567
aS'distributed application platform'
p2568
aS'dpo'
p2569
aS'course management'
p2570
aS'dpi'
p2571
aS'cmip over tcp/ip'
p2572
aS'metalanguage'
p2573
aS'bts'
p2574
aS'rack density'
p2575
aS'international organization for standardization'
p2576
aS'microgrid'
p2577
aS'service-oriented architecture'
p2578
aS'crm printing'
p2579
aS'bta'
p2580
aS'digital marketer'
p2581
aS'connected imaging devices'
p2582
aS'100 gbps pon'
p2583
aS'customer premises equipment'
p2584
aS'object-oriented database management system'
p2585
aS'operational resilience'
p2586
aS'web services software'
p2587
aS'average selling price'
p2588
aS'versatile authentication server and service'
p2589
aS'information management'
p2590
aS'enterprise applications'
p2591
aS'object-based technologies'
p2592
aS'dlp'
p2593
aS'international mobile equipment identifier'
p2594
aS'drum, buffer, rope'
p2595
aS'x windows'
p2596
aS'vrs'
p2597
aS'geosynchronous orbit'
p2598
aS'javascript'
p2599
aS'central processing unit'
p2600
aS'vru'
p2601
aS'database design'
p2602
aS'darpa'
p2603
aS'web authorization management'
p2604
aS'i/o channel'
p2605
aS'mobile middleware'
p2606
aS'p2p'
p2607
aS'time out'
p2608
aS'e-learning'
p2609
aS'swift'
p2610
aS'vrm'
p2611
aS'hardware and software maintenance services'
p2612
aS'tls'
p2613
aS'tlp'
p2614
aS'compandor'
p2615
aS'dynamic address translation'
p2616
aS'crisis/incident management'
p2617
aS'machine-to-machine'
p2618
aS'eta'
p2619
aS'roit'
p2620
aS'tlm'
p2621
aS'web-enabled'
p2622
aS'business capability modeling'
p2623
aS'consumer telematics'
p2624
aS'behavioral/gestural analytics'
p2625
aS'cm'
p2626
aS'ca'
p2627
aS'contact center system'
p2628
aS'ce'
p2629
aS'circuit switching'
p2630
aS'data replication'
p2631
aS'human augmentation'
p2632
aS'ucc'
p2633
aS'synchronous optical network'
p2634
aS'cu'
p2635
aS'message passing'
p2636
aS'dbms management'
p2637
aS'key process output variable'
p2638
aS'rdbms'
p2639
aS'social search'
p2640
aS'wpa2'
p2641
aS'infrastructure utility services'
p2642
aS'connection-oriented service'
p2643
aS'e-book readers'
p2644
aS'porting'
p2645
aS'integrated document management'
p2646
aS'waste'
p2647
aS'multidimensional database management system'
p2648
aS'strategy, iteration, testing, enablement'
p2649
aS'telco'
p2650
aS'quadrature amplitude modulation'
p2651
aS'rich internet application'
p2652
aS'communications port'
p2653
aS'rvm'
p2654
aS'enterprise context'
p2655
aS'time domain reflectometry'
p2656
aS'sensei'
p2657
aS'common open software environment'
p2658
aS'pulse amplitude modulation'
p2659
aS'digital divide'
p2660
aS'laser'
p2661
aS'onboarding'
p2662
aS'radio-frequency identification'
p2663
aS'zigbee'
p2664
aS'network access point'
p2665
aS'jukebox'
p2666
aS'dvcs'
p2667
aS'rapid application development'
p2668
aS'control character'
p2669
aS'tokenization'
p2670
aS'laboratory information management system'
p2671
aS'predictive support'
p2672
aS'intranet'
p2673
aS'customer information management'
p2674
aS'va'
p2675
aS'vb'
p2676
aS'vc'
p2677
aS'order management'
p2678
aS'site'
p2679
aS'avl'
p2680
aS'vr'
p2681
aS'vs'
p2682
aS'certification authority'
p2683
aS'multicarrier code division multiple access'
p2684
aS'application-specific standard product'
p2685
aS'avc'
p2686
aS'expertise location'
p2687
aS'ensemble programming'
p2688
aS'podcasting'
p2689
aS'kyoto wheel'
p2690
aS'connection'
p2691
aS'fraud detection'
p2692
aS'isdn'
p2693
aS'materials management'
p2694
aS'simulation'
p2695
aS'wimax'
p2696
aS'pho'
p2697
aS'memory overcommit'
p2698
aS'six sigma'
p2699
aS'service pack'
p2700
aS'cmns'
p2701
aS'subjective, objective, assessment and plan'
p2702
aS'interface definition language'
p2703
aS'phs'
p2704
aS'demand response'
p2705
aS'pde'
p2706
aS'dat'
p2707
aS'storage subsystem hardware services'
p2708
aS'eye tracking'
p2709
aS'relational dbms'
p2710
aS'dish/stirling engine'
p2711
aS'data center'
p2712
aS'haptics in automotive'
p2713
aS'lcos'
p2714
aS'secondary channel'
p2715
aS'snmp'
p2716
aS'km strategy'
p2717
aS'user provisioning'
p2718
aS'etrm'
p2719
aS'feature smartphone'
p2720
aS'autonomous system number'
p2721
aS'mobile wireless local loop'
p2722
aS'communications oriented production information and control system'
p2723
aS'visual basic extension'
p2724
aS'mft'
p2725
aS'simple api for xml'
p2726
aS'stalking horses'
p2727
aS'sku'
p2728
aS'mobile im'
p2729
aS'ssem'
p2730
aS'console'
p2731
aS'electronic paper'
p2732
aS'certification practice statement'
p2733
aS'requirements definition and management'
p2734
aS'reusable analog intellectual property'
p2735
aS'redaction tools'
p2736
aS'adf'
p2737
aS'wep'
p2738
aS'adc'
p2739
aS'mobile ip'
p2740
aS'digital subscriber line'
p2741
aS'crud'
p2742
aS'external social software'
p2743
aS'deployment'
p2744
aS'imei'
p2745
aS'nfc'
p2746
aS'cooling management systems'
p2747
aS'file server'
p2748
aS'digital thick wallet solutions'
p2749
aS'mhl'
p2750
aS'phase alternate line'
p2751
aS'original equipment manufacturer'
p2752
aS'serving gprs support node'
p2753
aS'pmus'
p2754
aS'spatial division multiple access'
p2755
aS'page'
p2756
aS'xsl'
p2757
aS'cross-modulation'
p2758
aS'printed semiconductors'
p2759
aS'wireless power'
p2760
aS'concentrator'
p2761
aS'high-concentration photovoltaics'
p2762
aS'self-service analytics'
p2763
aS'library'
p2764
aS'non-cable consumer fixed broadband'
p2765
aS'sustainable cell rate'
p2766
aS'microsoft certified professional'
p2767
aS'vsm'
p2768
aS'vendor revenue'
p2769
aS'voice of the customer'
p2770
aS'home health monitoring'
p2771
aS'sdsl'
p2772
aS'esp'
p2773
aS'native code compiler for java'
p2774
aS'lean'
p2775
aS'marketing mix optimization'
p2776
aS'dfss'
p2777
aS'high-definition'
p2778
aS'reduced instruction set computer'
p2779
aS'human resource management system'
p2780
aS'esi'
p2781
aS'thin provisioning'
p2782
aS'dco'
p2783
aS'digital modem'
p2784
aS'federated identity management'
p2785
aS'data management and integration'
p2786
aS'wireless application service provider'
p2787
aS'dcb'
p2788
aS'service-level objective'
p2789
aS'apaas'
p2790
aS'internet tv'
p2791
aS'personal cloud'
p2792
aS'data broker'
p2793
aS'java'
p2794
aS'wan replacement'
p2795
aS'bring your own device'
p2796
aS'ansi'
p2797
aS'ndc'
p2798
aS'web books'
p2799
aS'transmission control protocol/internet protocol'
p2800
aS'ndf'
p2801
aS'connected portable navigation devices'
p2802
aS'analytical hierarchy process'
p2803
aS'msps'
p2804
aS'microgrids'
p2805
aS'itssm tools'
p2806
aS'virtual reality'
p2807
aS'dual-band'
p2808
aS'frequency modulation'
p2809
aS'world wide web consortium'
p2810
aS'application platform as a service'
p2811
aS'2d bar code marketing'
p2812
aS'biometric authentication'
p2813
aS'complex instruction set computer'
p2814
aS'bt3.0'
p2815
aS'trouble ticket'
p2816
aS'scanner'
p2817
aS'handwriting recognition'
p2818
aS'enterprise risk management'
p2819
aS'load balancing'
p2820
aS'w3c'
p2821
aS'private cloud computing'
p2822
aS'van'
p2823
aS'web crawler'
p2824
aS'runtime application self-protection'
p2825
aS'content management systems'
p2826
aS'hrms'
p2827
aS'continuous improvement'
p2828
aS'concurrent engineering'
p2829
aS'sgsn'
p2830
aS'communications as a service'
p2831
aS'unified communications'
p2832
aS'corporate trade exchange'
p2833
aS'parallel processing'
p2834
aS'var'
p2835
aS'vas'
p2836
aS'artificial intelligence'
p2837
aS'channel integration'
p2838
aS'receiver sensitivity'
p2839
aS'eam'
p2840
aS'mainstream notebook'
p2841
aS'eao'
p2842
aS'bcm'
p2843
aS'bluetooth low energy'
p2844
aS'bt4.0'
p2845
aS'bpus'
p2846
aS'hi'
p2847
aS'eap'
p2848
aS'storage support services'
p2849
aS'bug'
p2850
aS'hd'
p2851
aS'high tj systems'
p2852
aS'dmb'
p2853
aS'itil'
p2854
aS'switch'
p2855
aS'dmi'
p2856
aS'wap'
p2857
aS'value-added network'
p2858
aS'context management engine'
p2859
aS'enterprise fraud management'
p2860
aS'2.5g'
p2861
aS'byod'
p2862
aS'm-business'
p2863
aS'cmol'
p2864
aS'audio mining/speech analytics'
p2865
aS'adas'
p2866
aS'pim'
p2867
aS'fhma'
p2868
aS'facebook commerce'
p2869
aS'secure web gateway'
p2870
aS'cmot'
p2871
aS'line driver'
p2872
aS'dynamic application security testing'
p2873
aS'cmos'
p2874
aS'generation scheduling'
p2875
aS'sciv'
p2876
aS'liquid submersion cooling'
p2877
aS'relational online analytical processing'
p2878
aS'caller id'
p2879
aS'virtual channel'
p2880
aS'hpc'
p2881
aS'free cooling'
p2882
aS'continuous production'
p2883
aS'wi-fi protected access 2'
p2884
aS'subnet'
p2885
aS'fmea'
p2886
aS'digital audio broadcasting plus'
p2887
aS'resource requirements planning'
p2888
aS'pc virtual software appliance'
p2889
aS'vsca'
p2890
aS'gray scale'
p2891
aS'interactive visualization'
p2892
aS'specialized mobile radio'
p2893
aS'web hosting'
p2894
aS'advanced research projects agency network'
p2895
aS'cps'
p2896
aS'product support services'
p2897
aS'cyber incident response plan'
p2898
aS'coordination mechanics'
p2899
aS'it service desk'
p2900
aS'private key'
p2901
aS'voice-enabled residential/small-office gateway/router with embedded dsl modem'
p2902
aS'balanced scorecard'
p2903
aS'bcp'
p2904
atRp2905
.