c__builtin__
set
p1
((lp2
S'photoshop'
p3
aS'mfc'
p4
aS'solaris'
p5
aS'nosql'
p6
aS'windows xp'
p7
aS'technologies'
p8
aS'storage'
p9
aS'visual c++'
p10
aS'visual studio'
p11
aS'mysql'
p12
aS'internet explorer'
p13
aS'bug tracking'
p14
aS'issues'
p15
aS'developer'
p16
aS'xml'
p17
aS'access'
p18
aS'autocad'
p19
aS'big data'
p20
aS'implementation'
p21
aS'c'
aS'web service'
p22
aS'internal'
p23
aS'matlab'
p24
aS'pcb'
p25
aS'customers'
p26
aS'python'
p27
aS'windows server'
p28
aS'microsoft'
p29
aS'db'
p30
aS'dhcp'
p31
aS'illustrator'
p32
aS'db2'
p33
aS'servlet'
p34
aS'mobileweb'
p35
aS'.net'
p36
aS'embedded'
p37
aS'c++.net'
p38
aS'c++'
p39
aS'server'
p40
aS'qa'
p41
aS'architecture'
p42
aS'mssql'
p43
aS'security'
p44
aS'experiences'
p45
aS'kernel'
p46
aS'tcp ip'
p47
aS'google'
p48
aS'adobe'
p49
aS'asp'
p50
aS'video'
p51
aS'teams'
p52
aS'arm'
p53
aS'best'
p54
aS'windows vista'
p55
aS'ftp'
p56
aS'computer'
p57
aS'labview'
p58
aS'delphi'
p59
aS'shell script'
p60
aS'integration'
p61
aS'android app'
p62
aS'looking'
p63
aS'rf'
p64
aS'web services'
p65
aS'mac os'
p66
aS'uml'
p67
aS'email'
p68
aS'iot'
p69
aS'android'
p70
aS'hibernate'
p71
aS'windows nt'
p72
aS'web'
p73
aS'aws'
p74
aS'javascript'
p75
aS'bi'
p76
aS'ajax'
p77
aS'plc'
p78
aS'html5'
p79
aS'mes'
p80
aS'apache'
p81
aS'networking'
p82
aS'analyses'
p83
aS'ios'
p84
aS'tiptop'
p85
aS'software development'
p86
aS'j2ee'
p87
aS'postgresql'
p88
aS'socket'
p89
aS'vb.net'
p90
aS'java script'
p91
aS'programming'
p92
aS'mvc'
p93
aS'router'
p94
aS'engineers'
p95
aS'powerpoint'
p96
aS'etl'
p97
aS'software engineer'
p98
aS'outlook'
p99
aS'firewall'
p100
aS'app'
p101
aS'coding'
p102
aS'pos'
p103
aS'wifi'
p104
aS'unix'
p105
aS'api'
p106
aS'troubleshooting'
p107
aS'zzw3'
p108
aS'linux'
p109
aS'cisco'
p110
aS'xp'
p111
aS'quality'
p112
aS'cloud'
p113
aS'ad'
p114
aS'git'
p115
aS'java'
p116
aS'vbscript'
p117
aS'struts'
p118
aS'perl'
p119
aS'bios'
p120
aS'json'
p121
aS'iphone'
p122
aS'dns'
p123
aS'visio'
p124
aS'shell'
p125
aS'dreamweaver'
p126
aS'iis'
p127
aS'c#'
p128
aS'basic'
p129
aS'vba'
p130
aS'vmware'
p131
aS'dos'
p132
aS'oop'
p133
aS'visual basic'
p134
aS'mcu'
p135
aS'vpn'
p136
aS'ruby'
p137
aS'bug'
p138
aS'project management'
p139
aS'sdk'
p140
aS'jquery'
p141
aS'visual basic .net'
p142
aS'erp'
p143
aS'ux'
p144
aS'dhtml'
p145
aS'database'
p146
aS'mobile'
p147
aS'r'
aS'ui'
p148
aS'verification'
p149
aS'ms'
p150
aS'embedded system'
p151
aS'usability'
p152
aS'debugging'
p153
aS'visual studio .net'
p154
aS'san'
p155
aS'ip'
p156
aS'is'
p157
aS'al'
p158
aS'hardware'
p159
aS'ap'
p160
aS'in'
p161
aS'ic'
p162
aS'sap'
p163
aS'information'
p164
aS'vista'
p165
aS'https'
p166
aS'asp.net'
p167
aS'firmware'
p168
aS'excel'
p169
aS'hadoop'
p170
aS'c#.net'
p171
aS'responsibilities'
p172
aS'html'
p173
aS'ccna'
p174
aS'mis'
p175
aS'mcse'
p176
aS'css'
p177
aS'development'
p178
aS'lan'
p179
aS'explorer'
p180
aS'vlan'
p181
aS'problems'
p182
aS'automation'
p183
aS'mac'
p184
aS'jsp'
p185
aS'dba'
p186
aS'sql'
p187
aS'device'
p188
aS'php'
p189
aS'data'
p190
aS'tracking'
p191
aS'algorithm'
p192
aS'sql server'
p193
aS'windows'
p194
aS'documentation'
p195
aS'sw'
p196
aS'tomcat'
p197
aS'cpu'
p198
aS'switch'
p199
aS'client'
p200
aS'ooad'
p201
aS'english'
p202
aS'oracle'
p203
aS'ethernet'
p204
aS'sa'
p205
aS'software'
p206
aS'frontpage'
p207
aS'sd'
p208
atRp209
.