c__builtin__
set
p1
((lp2
S'jquery'
p3
aS'c#'
p4
aS'.net'
p5
aS'java'
p6
aS'mysql'
p7
aS'linux'
p8
aS'javascript'
p9
aS'ios'
p10
aS'c'
aS'c++'
p11
aS'asp.net'
p12
aS'ajax'
p13
aS'html'
p14
aS'zzw3'
p15
aS'sql'
p16
aS'visual basic'
p17
aS'php'
p18
aS'app'
p19
aS'android'
p20
atRp21
.