c__builtin__
set
p1
((lp2
S'photoshop'
p3
aS'tcp ip'
p4
aS'windows xp'
p5
aS'app'
p6
aS'visual c++'
p7
aS'outlook'
p8
aS'visual basic .net'
p9
aS'unix'
p10
aS'visual studio'
p11
aS'zzw3'
p12
aS'linux'
p13
aS'sap'
p14
aS'cloud'
p15
aS'xml'
p16
aS'web'
p17
aS'java'
p18
aS'asp.net'
p19
aS'struts'
p20
aS'excel'
p21
aS'mysql'
p22
aS'c#.net'
p23
aS'c#'
p24
aS'html'
p25
aS'vmware'
p26
aS'uml'
p27
aS'shell'
p28
aS'css'
p29
aS'android'
p30
aS'asp'
p31
aS'windows nt'
p32
aS'python'
p33
aS'windows server'
p34
aS'javascript'
p35
aS'ios'
p36
aS'c'
aS'ajax'
p37
aS'jsp'
p38
aS'html5'
p39
aS'sql'
p40
aS'mcu'
p41
aS'php'
p42
aS'visual basic'
p43
aS'jquery'
p44
aS'j2ee'
p45
aS'erp'
p46
aS'embedded'
p47
aS'dhtml'
p48
aS'sql server'
p49
aS'mobile'
p50
aS'vb.net'
p51
aS'java script'
p52
aS'.net'
p53
aS'programming'
p54
aS'c++'
p55
aS'mvc'
p56
aS'ui'
p57
aS'oracle'
p58
aS'security'
p59
aS'powerpoint'
p60
atRp61
.