c__builtin__
set
p1
((lp2
S'photoshop'
p3
aS'mfc'
p4
aS'solaris'
p5
aS'nosql'
p6
aS'windows xp'
p7
aS'web service'
p8
aS'visual c++'
p9
aS'visual studio'
p10
aS'mysql'
p11
aS'bug tracking'
p12
aS'xml'
p13
aS'web'
p14
aS'autocad'
p15
aS'big data'
p16
aS'c'
aS'dba'
p17
aS'matlab'
p18
aS'pcb'
p19
aS'python'
p20
aS'windows server'
p21
aS'uml'
p22
aS'erp'
p23
aS'db2'
p24
aS'servlet'
p25
aS'dhtml'
p26
aS'c++.net'
p27
aS'c++'
p28
aS'qa'
p29
aS'architecture'
p30
aS'security'
p31
aS'kernel'
p32
aS'tcp ip'
p33
aS'.net'
p34
aS'cisco'
p35
aS'asp'
p36
aS'arm'
p37
aS'vmware'
p38
aS'ftp'
p39
aS'delphi'
p40
aS'shell script'
p41
aS'android app'
p42
aS'access'
p43
aS'rf'
p44
aS'web services'
p45
aS'mac os'
p46
aS'dhcp'
p47
aS'hibernate'
p48
aS'windows nt'
p49
aS'ios'
p50
aS'javascript'
p51
aS'bi'
p52
aS'ajax'
p53
aS'plc'
p54
aS'html5'
p55
aS'mes'
p56
aS'embedded system'
p57
aS'software development'
p58
aS'j2ee'
p59
aS'postgresql'
p60
aS'socket'
p61
aS'vb.net'
p62
aS'java script'
p63
aS'programming'
p64
aS'mvc'
p65
aS'router'
p66
aS'powerpoint'
p67
aS'etl'
p68
aS'software'
p69
aS'outlook'
p70
aS'firewall'
p71
aS'app'
p72
aS'pos'
p73
aS'unix'
p74
aS'troubleshooting'
p75
aS'zzw3'
p76
aS'linux'
p77
aS'quality'
p78
aS'cloud'
p79
aS'ad'
p80
aS'git'
p81
aS'java'
p82
aS'vbscript'
p83
aS'struts'
p84
aS'perl'
p85
aS'bios'
p86
aS'json'
p87
aS'dns'
p88
aS'visio'
p89
aS'shell'
p90
aS'dreamweaver'
p91
aS'iis'
p92
aS'c#'
p93
aS'vba'
p94
aS'oop'
p95
aS'visual basic'
p96
aS'mcu'
p97
aS'vpn'
p98
aS'ruby'
p99
aS'project management'
p100
aS'jquery'
p101
aS'illustrator'
p102
aS'ux'
p103
aS'embedded'
p104
aS'labview'
p105
aS'r'
aS'ui'
p106
aS'tiptop'
p107
aS'usability'
p108
aS'debugging'
p109
aS'visual studio .net'
p110
aS'san'
p111
aS'visual basic .net'
p112
aS'ic'
p113
aS'sap'
p114
aS'mssql'
p115
aS'asp.net'
p116
aS'firmware'
p117
aS'excel'
p118
aS'hadoop'
p119
aS'c#.net'
p120
aS'html'
p121
aS'ccna'
p122
aS'android'
p123
aS'mcse'
p124
aS'css'
p125
aS'vlan'
p126
aS'aws'
p127
aS'automation'
p128
aS'mac'
p129
aS'jsp'
p130
aS'sql'
p131
aS'php'
p132
aS'tracking'
p133
aS'tomcat'
p134
aS'sql server'
p135
aS'mobile'
p136
aS'wifi'
p137
aS'frontpage'
p138
aS'ooad'
p139
aS'oracle'
p140
aS'dos'
p141
aS'sa'
p142
aS'cpu'
p143
aS'sd'
p144
atRp145
.