c__builtin__
set
p1
((lp2
S'visual studio .net'
p3
aS'app'
p4
aS'visual c++'
p5
aS'visual basic .net'
p6
aS'unix'
p7
aS'shell'
p8
aS'zzw3'
p9
aS'linux'
p10
aS'ic'
p11
aS'perl'
p12
aS'vmware'
p13
aS'xml'
p14
aS'git'
p15
aS'java'
p16
aS'asp.net'
p17
aS'delphi'
p18
aS'struts'
p19
aS'android app'
p20
aS'c#'
p21
aS'mvc'
p22
aS'c#.net'
p23
aS'uml'
p24
aS'android'
p25
aS'css'
p26
aS'asp'
p27
aS'windows nt'
p28
aS'python'
p29
aS'javascript'
p30
aS'ios'
p31
aS'c'
aS'ajax'
p32
aS'jsp'
p33
aS'html5'
p34
aS'sql'
p35
aS'mcu'
p36
aS'php'
p37
aS'ruby'
p38
aS'jquery'
p39
aS'j2ee'
p40
aS'embedded'
p41
aS'dhtml'
p42
aS'sql server'
p43
aS'mysql'
p44
aS'vb.net'
p45
aS'java script'
p46
aS'.net'
p47
aS'programming'
p48
aS'html'
p49
aS'c++'
p50
aS'r'
aS'ui'
p51
aS'tomcat'
p52
aS'visual basic'
p53
atRp54
.