c__builtin__
set
p1
((lp2
S'zigbee'
p3
aS'app'
p4
aS'visual c++'
p5
aS'visual basic .net'
p6
aS'unix'
p7
aS'shell'
p8
aS'linux'
p9
aS'vmware'
p10
aS'xml'
p11
aS'java'
p12
aS'asp.net'
p13
aS'struts'
p14
aS'c#.net'
p15
aS'c#'
p16
aS'html'
p17
aS'uml'
p18
aS'android'
p19
aS'css'
p20
aS'asp'
p21
aS'windows nt'
p22
aS'python'
p23
aS'javascript'
p24
aS'ios'
p25
aS'c'
aS'ajax'
p26
aS'jsp'
p27
aS'html5'
p28
aS'sql'
p29
aS'mcu'
p30
aS'php'
p31
aS'jquery'
p32
aS'j2ee'
p33
aS'dhtml'
p34
aS'embedded'
p35
aS'sql server'
p36
aS'mysql'
p37
aS'vb.net'
p38
aS'java script'
p39
aS'.net'
p40
aS'programming'
p41
aS'c++'
p42
aS'mvc'
p43
aS'ui'
p44
aS'visual basic'
p45
atRp46
.