c__builtin__
set
p1
((lp2
S'photoshop'
p3
aS'mfc'
p4
aS'solaris'
p5
aS'nosql'
p6
aS'windows xp'
p7
aS'dba'
p8
aS'visual c++'
p9
aS'outlook'
p10
aS'visual studio'
p11
aS'mysql'
p12
aS'bug tracking'
p13
aS'xml'
p14
aS'access'
p15
aS'j2se'
p16
aS'big data'
p17
aS'agile'
p18
aS'matlab'
p19
aS'pcb'
p20
aS'python'
p21
aS'windows server'
p22
aS'.net framework'
p23
aS'amazon'
p24
aS'uml'
p25
aS'db2'
p26
aS'servlet'
p27
aS'android'
p28
aS'compiler'
p29
aS'unity3d'
p30
aS'embedded'
p31
aS'.net'
p32
aS'c++'
p33
aS'qa'
p34
aS'security'
p35
aS'linux kernel'
p36
aS'kernel'
p37
aS'tcp ip'
p38
aS'cisco'
p39
aS'linux'
p40
aS'scrum'
p41
aS'bluetooth'
p42
aS'systems analysis'
p43
aS'asp'
p44
aS'citrix'
p45
aS'seo'
p46
aS'arm'
p47
aS'vmware'
p48
aS'delphi'
p49
aS'shell script'
p50
aS'dsp'
p51
aS'android app'
p52
aS'rd'
p53
aS'android sdk'
p54
aS'optimization'
p55
aS'verilog'
p56
aS'web services'
p57
aS'mac os'
p58
aS'dhcp'
p59
aS'cgi'
p60
aS'hibernate'
p61
aS'windows nt'
p62
aS'ios'
p63
aS'javascript'
p64
aS'bi'
p65
aS'ajax'
p66
aS'jdbc'
p67
aS'plc'
p68
aS'html5'
p69
aS'mes'
p70
aS'interface'
p71
aS'autocad'
p72
aS'swift'
p73
aS'tiptop'
p74
aS'rdbms'
p75
aS'c'
aS'postgresql'
p76
aS'socket'
p77
aS'vb.net'
p78
aS'java script'
p79
aS'programming'
p80
aS'mvc'
p81
aS'crm'
p82
aS'etl'
p83
aS'soc'
p84
aS'firewall'
p85
aS'app'
p86
aS'scripts'
p87
aS'pos'
p88
aS'unix'
p89
aS'troubleshooting'
p90
aS'zzw3'
p91
aS'data mining'
p92
aS'quality'
p93
aS'device driver'
p94
aS'cloud'
p95
aS'backend'
p96
aS'clustering'
p97
aS'git'
p98
aS'java'
p99
aS'tuning'
p100
aS'vbscript'
p101
aS'struts'
p102
aS'json'
p103
aS'rails'
p104
aS'perl'
p105
aS'bios'
p106
aS'embedded linux'
p107
aS'dns'
p108
aS'visio'
p109
aS'mining'
p110
aS'shell'
p111
aS'dreamweaver'
p112
aS'fpga'
p113
aS'c#'
p114
aS'vba'
p115
aS'oop'
p116
aS'visual basic'
p117
aS'mcu'
p118
aS'vpn'
p119
aS'ruby'
p120
aS'project management'
p121
aS'jquery'
p122
aS'erp'
p123
aS'ux'
p124
aS'dhtml'
p125
aS'machine learning'
p126
aS'labview'
p127
aS'r'
aS'ui'
p128
aS'embedded system'
p129
aS'scripting'
p130
aS'usability'
p131
aS'debugging'
p132
aS'visual studio .net'
p133
aS'ad'
p134
aS'visual basic .net'
p135
aS'objective-c'
p136
aS'cobol'
p137
aS'angularjs'
p138
aS'ic'
p139
aS'sap'
p140
aS'mssql'
p141
aS'ccnp'
p142
aS'iis'
p143
aS'asp.net'
p144
aS'firmware'
p145
aS'hadoop'
p146
aS'c#.net'
p147
aS'unity'
p148
aS'html'
p149
aS'ccna'
p150
aS'actionscript'
p151
aS'c#.net1.'
p152
aS'xhtml'
p153
aS'mcse'
p154
aS'mobile app'
p155
aS'css'
p156
aS'j2ee'
p157
aS'x86'
p158
aS'mongodb'
p159
aS'vlan'
p160
aS'aws'
p161
aS'automation'
p162
aS'ansi'
p163
aS'jsp'
p164
aS'sql'
p165
aS'php'
p166
aS'tracking'
p167
aS'tomcat'
p168
aS'sql server'
p169
aS'bootstrap'
p170
aS'c++.net'
p171
aS'ooad'
p172
aS'oracle'
p173
aS'cpu'
p174
atRp175
.