c__builtin__
set
p1
((lp2
S'photoshop'
p3
aS'tcp ip'
p4
aS'struts'
p5
aS'cisco'
p6
aS'windows xp'
p7
aS'firewall'
p8
aS'app'
p9
aS'visual c++'
p10
aS'pos'
p11
aS'visual basic .net'
p12
aS'unix'
p13
aS'visual studio'
p14
aS'zzw3'
p15
aS'linux'
p16
aS'ic'
p17
aS'sap'
p18
aS'quality'
p19
aS'arm'
p20
aS'cloud'
p21
aS'windows nt'
p22
aS'xml'
p23
aS'web'
p24
aS'git'
p25
aS'java'
p26
aS'asp.net'
p27
aS'delphi'
p28
aS'firmware'
p29
aS'excel'
p30
aS'mysql'
p31
aS'android app'
p32
aS'access'
p33
aS'bios'
p34
aS'r'
aS'c#.net'
p35
aS'vmware'
p36
aS'dreamweaver'
p37
aS'visio'
p38
aS'uml'
p39
aS'outlook'
p40
aS'visual studio .net'
p41
aS'css'
p42
aS'android'
p43
aS'asp'
p44
aS'shell'
p45
aS'dns'
p46
aS'python'
p47
aS'windows server'
p48
aS'javascript'
p49
aS'ios'
p50
aS'c'
aS'c#'
p51
aS'perl'
p52
aS'mac'
p53
aS'jsp'
p54
aS'html5'
p55
aS'mes'
p56
aS'sql'
p57
aS'illustrator'
p58
aS'mcu'
p59
aS'php'
p60
aS'ruby'
p61
aS'visual basic'
p62
aS'jquery'
p63
aS'j2ee'
p64
aS'erp'
p65
aS'embedded'
p66
aS'dhtml'
p67
aS'sql server'
p68
aS'mobile'
p69
aS'vb.net'
p70
aS'java script'
p71
aS'.net'
p72
aS'programming'
p73
aS'ajax'
p74
aS'c++'
p75
aS'powerpoint'
p76
aS'mvc'
p77
aS'ui'
p78
aS'architecture'
p79
aS'oracle'
p80
aS'tomcat'
p81
aS'security'
p82
aS'html'
p83
aS'oop'
p84
atRp85
.