c__builtin__
set
p1
((lp2
S'scm'
p3
aS'busybox'
p4
aS'bapi'
p5
aS'windows xp'
p6
aS'scc'
p7
aS'smr'
p8
aS'umts'
p9
aS'mp4'
p10
aS'bytecode'
p11
aS'system design'
p12
aS'user experience design'
p13
aS'ptt'
p14
aS'integrity'
p15
aS'scp'
p16
aS'content management'
p17
aS'scr'
p18
aS'rd'
p19
aS'security manager'
p20
aS'wms'
p21
aS'directory services'
p22
aS'apple push notification service'
p23
aS'rtos'
p24
aS'dsl'
p25
aS'c6'
p26
aS'tn'
p27
aS'usability'
p28
aS'matlab'
p29
aS'spec'
p30
aS'ta'
p31
aS'application integration'
p32
aS'code review'
p33
aS'software quality assurance'
p34
aS'faq'
p35
aS'computer networking'
p36
aS'risc'
p37
aS'mpi'
p38
aS'replication'
p39
aS'wimax'
p40
aS'mps'
p41
aS'network server'
p42
aS'an application'
p43
aS'edm'
p44
aS'servlet'
p45
aS'tagging'
p46
aS'android tablet'
p47
aS'unity3d'
p48
aS'cable'
p49
aS'cmc'
p50
aS'upload'
p51
aS'smb'
p52
aS'vector'
p53
aS'delegate'
p54
aS'it consultant'
p55
aS'gc'
p56
aS'vpn server'
p57
aS'cms'
p58
aS'ups'
p59
aS'mp3'
p60
aS'secure http'
p61
aS'webdav'
p62
aS'netbeans'
p63
aS'network connectivity'
p64
aS'vb .net'
p65
aS'vbscript'
p66
aS'batch'
p67
aS'systems analysis'
p68
aS'zero'
p69
aS'street'
p70
aS'virtualization'
p71
aS'network infrastructure'
p72
aS'gm'
p73
aS'mpeg'
p74
aS'enterprise server'
p75
aS'cloud services'
p76
aS'asic'
p77
aS'nand'
p78
aS'decoding'
p79
aS'mainframe'
p80
aS'mac os'
p81
aS'mcitp'
p82
aS'microchip'
p83
aS'ner'
p84
aS'method'
p85
aS'dashboard'
p86
aS'software development life cycle'
p87
aS'hash'
p88
aS'server colocation'
p89
aS'test script'
p90
aS'machine vision'
p91
aS'tcl tk'
p92
aS'component'
p93
aS'answers'
p94
aS'codebase'
p95
aS'modular'
p96
aS'provisioning'
p97
aS'mes'
p98
aS'b2c'
p99
aS'b2b'
p100
aS'information technology'
p101
aS'application security'
p102
aS'vulnerability'
p103
aS'wdm'
p104
aS'sla'
p105
aS'function key'
p106
aS'wds'
p107
aS'drm'
p108
aS'advertising'
p109
aS'network monitoring'
p110
aS'iis'
p111
aS'computer architecture'
p112
aS'search engine optimization'
p113
aS'jailbreak'
p114
aS'unix'
p115
aS'vc'
p116
aS'ha storage'
p117
aS'appliances'
p118
aS'service desk'
p119
aS'mobile advertising'
p120
aS'device driver'
p121
aS'landscape'
p122
aS'management software'
p123
aS'foxpro'
p124
aS'instant message'
p125
aS'technology services'
p126
aS'rhel'
p127
aS'dns'
p128
aS'vi'
p129
aS'hardware troubleshooting'
p130
aS'project planning'
p131
aS'authorization'
p132
aS'memory bus'
p133
aS'jmx'
p134
aS'relay'
p135
aS'jms'
p136
aS'yahoo'
p137
aS'jpg'
p138
aS'vpc'
p139
aS'vpn'
p140
aS'webmaster'
p141
aS'network administrator'
p142
aS'md'
p143
aS'erp'
p144
aS'mb'
p145
aS'database security'
p146
aS'junit'
p147
aS'erd'
p148
aS'mv'
p149
aS'san security'
p150
aS'mp'
p151
aS'transparency'
p152
aS'visual basic'
p153
aS'root'
p154
aS'scripting'
p155
aS'atm'
p156
aS'skype'
p157
aS'smtp'
p158
aS'uat'
p159
aS'software development process'
p160
aS'apache tomcat'
p161
aS'scheduling'
p162
aS'service provider'
p163
aS'csd'
p164
aS'csa'
p165
aS'solaris'
p166
aS'csb'
p167
aS'sata'
p168
aS'c sharp'
p169
aS'actionscript'
p170
aS'c#.net1.'
p171
aS'record'
p172
aS'csv'
p173
aS'product release'
p174
aS'css'
p175
aS'csr'
p176
aS'fp'
p177
aS'gaming'
p178
aS'mpm'
p179
aS'modulation'
p180
aS'service levels'
p181
aS'lag'
p182
aS'storage capacity'
p183
aS'fb'
p184
aS'fc'
p185
aS'cognos'
p186
aS'parallel'
p187
aS'workstation'
p188
aS'business systems analyst'
p189
aS'pv'
p190
aS'wins'
p191
aS'bootstrap'
p192
aS'spring framework'
p193
aS'django'
p194
aS'domain name'
p195
aS'scsi'
p196
aS'industrial software'
p197
aS'storage device'
p198
aS'data aggregation'
p199
aS'vfp'
p200
aS'photoshop'
p201
aS'network security'
p202
aS'feedback'
p203
aS'xmpp'
p204
aS'jpeg'
p205
aS'pascal'
p206
aS'concurrency'
p207
aS'system configuration'
p208
aS'serdes'
p209
aS'enterprise class'
p210
aS'pcs'
p211
aS'fix'
p212
aS'unity'
p213
aS'edge'
p214
aS'computer system'
p215
aS'ims'
p216
aS'glassfish'
p217
aS'pcb'
p218
aS'fraud detection'
p219
aS'mobile device'
p220
aS'java object'
p221
aS'rtsp'
p222
aS'software framework'
p223
aS'security architecture'
p224
aS'safe'
p225
aS'ceh'
p226
aS'refactoring'
p227
aS'communities'
p228
aS'ip camera'
p229
aS'parallel processing'
p230
aS'odbc'
p231
aS'intelligent platform management interface'
p232
aS'mcsd'
p233
aS'token'
p234
aS'web development'
p235
aS'continuous delivery'
p236
aS'mobile payment'
p237
aS'hadoop ecosystem'
p238
aS'gprs'
p239
aS'accelerator'
p240
aS'mdm'
p241
aS'core switch'
p242
aS'knowledge management'
p243
aS'idea'
p244
aS'mapreduce'
p245
aS'array'
p246
aS'time to market'
p247
aS'catia'
p248
aS'quality'
p249
aS'ha'
p250
aS'smt'
p251
aS'sms'
p252
aS'dss'
p253
aS'dsp'
p254
aS'semiconductor'
p255
aS'race'
p256
aS'ra'
p257
aS'sdlc'
p258
aS'distributed system'
p259
aS'rm'
p260
aS'offline'
p261
aS'smd'
p262
aS'dsc'
p263
aS'ado.net'
p264
aS'disk'
p265
aS'network design'
p266
aS'management information system'
p267
aS'localization'
p268
aS'ntp'
p269
aS'data scientist'
p270
aS'free'
p271
aS'revision control'
p272
aS'asa'
p273
aS'cookie'
p274
aS'model view controller'
p275
aS'visual foxpro'
p276
aS'estimate'
p277
aS'gameplay'
p278
aS'bash'
p279
aS'network performance'
p280
aS'ate'
p281
aS'thread'
p282
aS'ata'
p283
aS'drupal'
p284
aS'atl'
p285
aS'isp'
p286
aS'silicon'
p287
aS'mvc'
p288
aS'iso'
p289
aS'isn'
p290
aS'circuit'
p291
aS'unit test'
p292
aS'cdma'
p293
aS'microsoft azure'
p294
aS'benchmarking'
p295
aS'windows ce'
p296
aS'system programming'
p297
aS'google play'
p298
aS'dfs'
p299
aS'photoimpact'
p300
aS'production environment'
p301
aS'encryption algorithm'
p302
aS'wpf'
p303
aS'gpo'
p304
aS'vhdl'
p305
aS'tor'
p306
aS'tos'
p307
aS'struts'
p308
aS'wireshark'
p309
aS'rails'
p310
aS'domain controller'
p311
aS'gpu'
p312
aS'thin client'
p313
aS'system requirements'
p314
aS'gps'
p315
aS'text mining'
p316
aS'it strategy'
p317
aS'relationship'
p318
aS'rup'
p319
aS'microsoft windows'
p320
aS'raid controller'
p321
aS'apache spark'
p322
aS'windows embedded'
p323
aS'transaction'
p324
aS'jquery'
p325
aS'regular expression'
p326
aS'cable modem'
p327
aS'data collection'
p328
aS'aaa'
p329
aS'software life cycle'
p330
aS'evdo'
p331
aS'stl'
p332
aS'solution architecture'
p333
aS'final'
p334
aS'development environment'
p335
aS'embedded system'
p336
aS'continuous integration'
p337
aS'enhancement'
p338
aS'bridge'
p339
aS'lbs'
p340
aS'systems analyst'
p341
aS'massively parallel processing'
p342
aS'rac'
p343
aS'ran'
p344
aS'spectrum'
p345
aS'business intelligence'
p346
aS'system integration'
p347
aS'angularjs'
p348
aS'amazon web services'
p349
aS'always on'
p350
aS'same time'
p351
aS'latency'
p352
aS'lib'
p353
aS'user experience'
p354
aS'software architecture'
p355
aS'firmware'
p356
aS'pmi'
p357
aS'command'
p358
aS'wireless network'
p359
aS'rich media'
p360
aS'resource allocation'
p361
aS'server os'
p362
aS'memory'
p363
aS'rtd'
p364
aS'index'
p365
aS'service level agreement'
p366
aS'data warehouse'
p367
aS'architects'
p368
aS'bsm'
p369
aS'virus'
p370
aS'jsp'
p371
aS'moss'
p372
aS'scripts'
p373
aS'bsd'
p374
aS'data architect'
p375
aS'bsc'
p376
aS'consumer electronics'
p377
aS'dom'
p378
aS'tpm'
p379
aS'partition'
p380
aS'km'
p381
aS'microsoft project'
p382
aS'tps'
p383
aS'search engine'
p384
aS'caching'
p385
aS'baseband'
p386
aS'virtual machine'
p387
aS'hyper'
p388
aS'rtc'
p389
aS'xdsl'
p390
aS'visual studio'
p391
aS'vulnerability assessment'
p392
aS'rtp'
p393
aS'tft'
p394
aS'internet security'
p395
aS'android app'
p396
aS'availability'
p397
aS'docsis'
p398
aS'access'
p399
aS'itil'
p400
aS'virtual server'
p401
aS'big data'
p402
aS'console'
p403
aS'dwdm'
p404
aS'ldap'
p405
aS'ocp'
p406
aS'mobile network'
p407
aS'dm'
p408
aS'microprocessor'
p409
aS'cryptography'
p410
aS'ad domain'
p411
aS'android market'
p412
aS'de'
p413
aS'dc'
p414
aS'da'
p415
aS'next'
p416
aS'amazon'
p417
aS'synchronization'
p418
aS'downtime'
p419
aS'dv'
p420
aS'dw'
p421
aS'netflow'
p422
aS'dr'
p423
aS'compiler'
p424
aS'rfp'
p425
aS'bar'
p426
aS'stb'
p427
aS'ietf'
p428
aS'emi'
p429
aS'public'
p430
aS'rfc'
p431
aS'zabbix'
p432
aS'ems'
p433
aS'object oriented programming'
p434
aS'rfi'
p435
aS'embedded device'
p436
aS'high availability'
p437
aS'crm'
p438
aS'arp'
p439
aS'set'
p440
aS'active directory'
p441
aS'motherboard'
p442
aS'peripheral'
p443
aS'startup'
p444
aS'sku'
p445
aS'radius'
p446
aS'seo'
p447
aS'web designer'
p448
aS'microcode'
p449
aS'foss'
p450
aS'application server'
p451
aS'techniques'
p452
aS'capacity'
p453
aS'hdmi'
p454
aS'delphi'
p455
aS'mobile games'
p456
aS'router firmware'
p457
aS'web developer'
p458
aS'mmc'
p459
aS'vendor management'
p460
aS'contact us'
p461
aS'ad hoc'
p462
aS'dedicated server'
p463
aS'wf'
p464
aS'server software'
p465
aS'creating'
p466
aS'xslt'
p467
aS'javascript'
p468
aS'it infrastructure'
p469
aS'scalability'
p470
aS'oms'
p471
aS'html5'
p472
aS'wp'
p473
aS'interface'
p474
aS'j2se'
p475
aS'user exit'
p476
aS'inter process communication'
p477
aS'topology'
p478
aS'j2ee'
p479
aS'license'
p480
aS'web client'
p481
aS'dalvik'
p482
aS'load testing'
p483
aS'pdm'
p484
aS'customer support'
p485
aS'context'
p486
aS'integrated software'
p487
aS'pdf'
p488
aS'tftp'
p489
aS'audio codec'
p490
aS'com'
p491
aS'data integration'
p492
aS'con'
p493
aS'switching'
p494
aS'geolocation'
p495
aS'data mart'
p496
aS'debugging'
p497
aS'simple'
p498
aS'distributed computing'
p499
aS'community'
p500
aS'loader'
p501
aS'lambda architecture'
p502
aS'c shell'
p503
aS'data access'
p504
aS'linux'
p505
aS'proof of concept'
p506
aS'panel'
p507
aS'backend'
p508
aS'recommendation engine'
p509
aS'java'
p510
aS'pw'
p511
aS'sem'
p512
aS'basis'
p513
aS'infotainment'
p514
aS'deep learning'
p515
aS'virtual reality'
p516
aS'patch'
p517
aS'extraction'
p518
aS'dreamweaver'
p519
aS'tutorials'
p520
aS'pi'
p521
aS'adc'
p522
aS'rich client'
p523
aS'information management system'
p524
aS'data warehouse architect'
p525
aS'great'
p526
aS'web hosting'
p527
aS'maps'
p528
aS'pxe'
p529
aS'wintel'
p530
aS'feasibility study'
p531
aS'mcu'
p532
aS'mct'
p533
aS'end user'
p534
aS'mcp'
p535
aS'iterative development'
p536
aS'gnu'
p537
aS'radio frequency'
p538
aS'whql'
p539
aS'cts'
p540
aS'mpls'
p541
aS'hacking'
p542
aS'air'
p543
aS'aim'
p544
aS'aio'
p545
aS'optimization'
p546
aS'hypervisor'
p547
aS'product management'
p548
aS'dms'
p549
aS'anchor'
p550
aS'vod'
p551
aS'compliance'
p552
aS'ir'
p553
aS'rip'
p554
aS'image sensor'
p555
aS'database administration'
p556
aS'network management'
p557
aS'im'
p558
aS'il'
p559
aS'ia'
p560
aS'ic'
p561
aS'ie'
p562
aS'id'
p563
aS'lock screen'
p564
aS'ccnp'
p565
aS'baseline'
p566
aS'patent'
p567
aS'msql'
p568
aS'couchdb'
p569
aS'object storage'
p570
aS'hadoop'
p571
aS'knowledge management system'
p572
aS'quant'
p573
aS'ccna'
p574
aS'ipmi'
p575
aS'modification'
p576
aS'internet of things'
p577
aS'mcse'
p578
aS'storage networking'
p579
aS'social platform'
p580
aS'stored procedure'
p581
aS'raid'
p582
aS'x86'
p583
aS'hana'
p584
aS'live support'
p585
aS'communication software'
p586
aS'portal'
p587
aS'mips'
p588
aS'hipaa'
p589
aS'stack'
p590
aS'task'
p591
aS'pattern recognition'
p592
aS'continuous improvement'
p593
aS'disk array'
p594
aS'ipsec vpn'
p595
aS'practices'
p596
aS'program manager'
p597
aS'consistency'
p598
aS'docker'
p599
aS'i2c'
p600
aS'gsm'
p601
aS'help desk'
p602
aS'sap hana'
p603
aS'mom'
p604
aS'laptop'
p605
aS'networks'
p606
aS'mid'
p607
aS'mysql'
p608
aS'best practice'
p609
aS'visualization'
p610
aS'hal'
p611
aS'tablet'
p612
aS'elb'
p613
aS'agile'
p614
aS'scalable'
p615
aS'kinect'
p616
aS'fortran'
p617
aS'vswitch'
p618
aS'network protocols'
p619
aS'video on demand'
p620
aS'foundation framework'
p621
aS'vendor'
p622
aS'design thinking'
p623
aS'microcontroller'
p624
aS'web office'
p625
aS'lcd'
p626
aS'private'
p627
aS'video compression'
p628
aS'opc'
p629
aS'bit'
p630
aS'designers'
p631
aS'social networking'
p632
aS'ipsec'
p633
aS'vcm'
p634
aS'activex'
p635
aS'semi'
p636
aS'signal'
p637
aS'bpm'
p638
aS'xbox'
p639
aS'web content management'
p640
aS'online marketing'
p641
aS'bpr'
p642
aS'android platform'
p643
aS'project management software'
p644
aS'system management'
p645
aS'security'
p646
aS'xaml'
p647
aS'linux kernel'
p648
aS'prototyping'
p649
aS'functional reactive programming'
p650
aS'project management'
p651
aS'system administrator'
p652
aS'distributed development'
p653
aS'communications'
p654
aS'broadband'
p655
aS'data migration'
p656
aS'saas'
p657
aS'ice'
p658
aS'gateway'
p659
aS'power user'
p660
aS'cnc'
p661
aS'web services'
p662
aS'uml'
p663
aS'hcm'
p664
aS'ict'
p665
aS'bd'
p666
aS'teradata'
p667
aS'ba'
p668
aS'sfc'
p669
aS'barcode'
p670
aS'bi'
p671
aS'vdi'
p672
aS'bw'
p673
aS'plc'
p674
aS'content management system'
p675
aS'oem'
p676
aS'output'
p677
aS'post'
p678
aS'mssql'
p679
aS'pipeline'
p680
aS'postgresql'
p681
aS'uart'
p682
aS'private cloud'
p683
aS'ids'
p684
aS'simulation'
p685
aS'bgp'
p686
aS'user experience designer'
p687
aS'fcc'
p688
aS'xsl'
p689
aS'azure'
p690
aS'commit'
p691
aS'j2me'
p692
aS'ide'
p693
aS'microsoft office'
p694
aS'web programming'
p695
aS'ida'
p696
aS'soa'
p697
aS'soc'
p698
aS'garbage'
p699
aS'presence'
p700
aS'parsing'
p701
aS'contingency plan'
p702
aS'haskell'
p703
aS'troubleshooting'
p704
aS'ppt'
p705
aS'direct3d'
p706
aS'msp'
p707
aS'manual testing'
p708
aS'clustering'
p709
aS'jdbc'
p710
aS'gis'
p711
aS'spam'
p712
aS'waf'
p713
aS'demand forecasting'
p714
aS'pabx'
p715
aS'bios'
p716
aS'heroku'
p717
aS'wordpress'
p718
aS'forward'
p719
aS'tcpdump'
p720
aS'functional testing'
p721
aS'wap'
p722
aS'responsive web design'
p723
aS'business process analysis'
p724
aS'fpga'
p725
aS'webcam'
p726
aS'paypal'
p727
aS'linq'
p728
aS'heap'
p729
aS'sdn'
p730
aS'pwm'
p731
aS'static timing analysis'
p732
aS'fda'
p733
aS'csslp'
p734
aS'ux'
p735
aS'network layer'
p736
aS'network software'
p737
aS'middleware'
p738
aS'jboss'
p739
aS'cross platform'
p740
aS'data architecture'
p741
aS'ul'
p742
aS'ui'
p743
aS'capacity planning'
p744
aS'in sap'
p745
aS'ug'
p746
aS'citrix xenserver'
p747
aS'uc'
p748
aS'constant'
p749
aS'classic'
p750
aS'parser'
p751
aS'accessibility'
p752
aS'proven'
p753
aS'ddos'
p754
aS'chat'
p755
aS'organizational'
p756
aS'accounting'
p757
aS'network architecture'
p758
aS'acl'
p759
aS'ni'
p760
aS'application performance'
p761
aS'web design'
p762
aS'nc'
p763
aS'cics'
p764
aS'windows forms'
p765
aS'nat'
p766
aS'jenkins'
p767
aS'best practices'
p768
aS'load balancing router'
p769
aS'nice'
p770
aS'mongodb'
p771
aS'mcdba'
p772
aS'kvm'
p773
aS'update'
p774
aS'build tool'
p775
aS'system time'
p776
aS'sql'
p777
aS'variable'
p778
aS'ess'
p779
aS'sqa'
p780
aS'bot'
p781
aS'help desk management'
p782
aS'independently'
p783
aS'disaster recovery'
p784
aS'dvi'
p785
aS'cloud computing'
p786
aS'scala'
p787
aS'youtube'
p788
aS'tomcat'
p789
aS'unit testing'
p790
aS'internet desktop'
p791
aS'oltp'
p792
aS'memory card'
p793
aS'oracle'
p794
aS'n1'
p795
aS'sniffer'
p796
aS'fabless'
p797
aS'session initiation protocol'
p798
aS'edc'
p799
aS'eda'
p800
aS'rom'
p801
aS'process management'
p802
aS'nlp'
p803
aS'lean'
p804
aS'oss'
p805
aS'edi'
p806
aS'wordperfect'
p807
aS'resistance'
p808
aS'osi'
p809
aS'mobile web'
p810
aS'solution stack'
p811
aS'informix'
p812
aS'application firewall'
p813
aS'xen hypervisor'
p814
aS'query'
p815
aS'ror'
p816
aS'gl'
p817
aS'ux designer'
p818
aS'email server'
p819
aS'quality assurance'
p820
aS'jvm'
p821
aS'giga'
p822
aS'cdn'
p823
aS'smartphone'
p824
aS'string'
p825
aS'wcdma'
p826
aS'cocoa touch'
p827
aS'information security'
p828
aS'ccsp'
p829
aS'vpn firewall'
p830
aS'cellular'
p831
aS'join'
p832
aS'fan'
p833
aS'web form'
p834
aS'windows client'
p835
aS'transmission'
p836
aS'scripting language'
p837
aS'gui'
p838
aS'michael'
p839
aS'ruby on rails'
p840
aS'hive'
p841
aS'olap'
p842
aS'session'
p843
aS'diy'
p844
aS'asp'
p845
aS'hybrid cloud'
p846
aS'rack'
p847
aS'cgi'
p848
aS'tcp ip'
p849
aS'design pattern'
p850
aS'pms'
p851
aS'cfd'
p852
aS'noise'
p853
aS'odm'
p854
aS'pmc'
p855
aS'pmo'
p856
aS'rrs'
p857
aS'port'
p858
aS'vmware'
p859
aS'windows nt'
p860
aS'problem management'
p861
aS'hdfs'
p862
aS'bdc'
p863
aS'video conferencing'
p864
aS'multimedia'
p865
aS'smart card'
p866
aS'blade server'
p867
aS'cell'
p868
aS'winrt'
p869
aS'template'
p870
aS'sdp'
p871
aS'relational'
p872
aS'isapi'
p873
aS'scada'
p874
aS'performant'
p875
aS'bo'
p876
aS'led'
p877
aS'instant messaging'
p878
aS'microelectronics'
p879
aS'commercial'
p880
aS'velocity'
p881
aS'ecc'
p882
aS'ubuntu'
p883
aS'mobile app'
p884
aS'it asset management'
p885
aS'nids'
p886
aS'vba'
p887
aS'rfid reader'
p888
aS'rdp'
p889
aS'rds'
p890
aS'bu'
p891
aS'vb.net'
p892
aS'boot loader'
p893
aS'patch management'
p894
aS'hba'
p895
aS'host'
p896
aS'test automation'
p897
aS'software testing'
p898
aS'queue'
p899
aS'document management'
p900
aS'throughput'
p901
aS'bom'
p902
aS'rdc'
p903
aS'rdb'
p904
aS'modbus'
p905
aS'web page'
p906
aS'cti'
p907
aS'relation'
p908
aS'macintosh'
p909
aS'ipc'
p910
aS'physical security'
p911
aS'ip network'
p912
aS'firefox'
p913
aS'aps'
p914
aS'app'
p915
aS'bs'
p916
aS'sqlite'
p917
aS'test driven development'
p918
aS'dram'
p919
aS'backup and recovery'
p920
aS'battery'
p921
aS'cloud'
p922
aS'it governance'
p923
aS'social media'
p924
aS'fed'
p925
aS'computer network'
p926
aS'mss'
p927
aS'perl'
p928
aS'embedded linux'
p929
aS'visio'
p930
aS'netbios'
p931
aS'msc'
p932
aS'business logic'
p933
aS'data management'
p934
aS'ood'
p935
aS'class diagram'
p936
aS'performance management'
p937
aS'conductor'
p938
aS'video streaming'
p939
aS'benchmark'
p940
aS'visual j#'
p941
aS'business process'
p942
aS'oop'
p943
aS'iic'
p944
aS'release plan'
p945
aS'vlan'
p946
aS'erp system'
p947
aS'account'
p948
aS'data source'
p949
aS'dhtml'
p950
aS'cas'
p951
aS'car'
p952
aS'functional programming'
p953
aS'clients'
p954
aS'machine learning'
p955
aS'reverse engineering'
p956
aS'wallet'
p957
aS'tag'
p958
aS'cam'
p959
aS'cal'
p960
aS'agile software development'
p961
aS'cisa'
p962
aS'linux pc'
p963
aS'protocol stack'
p964
aS'tap'
p965
aS'parallel computing'
p966
aS'lock'
p967
aS'chip'
p968
aS'controller'
p969
aS'vc++'
p970
aS'agent'
p971
aS'data model'
p972
aS'web content'
p973
aS'his'
p974
aS'spc'
p975
aS'vpn router'
p976
aS'native'
p977
aS'sip'
p978
aS'sit'
p979
aS'handover'
p980
aS'joomla'
p981
aS'c#.net'
p982
aS'android device'
p983
aS'raspberry pi'
p984
aS'lotus notes'
p985
aS'xhtml'
p986
aS'lotus domino'
p987
aS'sim'
p988
aS'asml'
p989
aS'sd card'
p990
aS'cloud app'
p991
aS'npi'
p992
aS'clone'
p993
aS'collection'
p994
aS'java ee'
p995
aS'notebook'
p996
aS'it management'
p997
aS'sns'
p998
aS'communication protocol'
p999
aS'aop'
p1000
aS'tier'
p1001
aS'nps'
p1002
aS'man'
p1003
aS'paas'
p1004
aS'cod'
p1005
aS'object relational mapping'
p1006
aS'ospf'
p1007
aS'sp'
p1008
aS'gamma'
p1009
aS'acts'
p1010
aS'iptv'
p1011
aS'entity'
p1012
aS'quality control'
p1013
aS'statistical'
p1014
aS'cold'
p1015
aS'application architecture'
p1016
aS'ieee'
p1017
aS'vms'
p1018
aS'directx'
p1019
aS'volte'
p1020
aS'enterprise storage'
p1021
aS'gtc'
p1022
aS'arduino'
p1023
aS'banner'
p1024
aS'lamp'
p1025
aS'li'
p1026
aS'forms'
p1027
aS'window'
p1028
aS'cto'
p1029
aS'conformance'
p1030
aS'decryption'
p1031
aS'dac'
p1032
aS'python'
p1033
aS'mfc'
p1034
aS'indexing'
p1035
aS'hybrid cloud storage'
p1036
aS'noc'
p1037
aS'user interface design'
p1038
aS'dns server'
p1039
aS'safari'
p1040
aS'power management'
p1041
aS'articles'
p1042
aS'term'
p1043
aS'workload'
p1044
aS'nfc'
p1045
aS'system software'
p1046
aS'.net'
p1047
aS'win32'
p1048
aS'merge'
p1049
aS'user interface'
p1050
aS'l2'
p1051
aS'mode'
p1052
aS'l1'
p1053
aS'kpi'
p1054
aS'identifier'
p1055
aS'enterprise software'
p1056
aS'oracle database'
p1057
aS'mobile phone'
p1058
aS'ed'
p1059
aS'eg'
p1060
aS'ea'
p1061
aS'hlr'
p1062
aS'ec'
p1063
aS'eb'
p1064
aS'san switch'
p1065
aS'frequency'
p1066
aS'static'
p1067
aS'citrix'
p1068
aS'hspa+'
p1069
aS'eq'
p1070
aS'project manager'
p1071
aS'hacker'
p1072
aS'container'
p1073
aS'openflow'
p1074
aS'return on investment'
p1075
aS'computer engineering'
p1076
aS'ejb'
p1077
aS'configuration management'
p1078
aS'android sdk'
p1079
aS'rel'
p1080
aS'ble'
p1081
aS'response time'
p1082
aS'visual studio .net'
p1083
aS'real time'
p1084
aS'product introduction'
p1085
aS'hibernate'
p1086
aS'embedded software'
p1087
aS'subject matter expert'
p1088
aS'cissp'
p1089
aS'data quality'
p1090
aS'ajax'
p1091
aS'git'
p1092
aS'emulation'
p1093
aS'regulatory'
p1094
aS'linux server'
p1095
aS'partner'
p1096
aS'visual basic .net'
p1097
aS'midi'
p1098
aS'standby'
p1099
aS'adapters'
p1100
aS'messaging'
p1101
aS'programming'
p1102
aS'int'
p1103
aS'dpi'
p1104
aS'data security'
p1105
aS'security software'
p1106
aS'information architecture'
p1107
aS'eeprom'
p1108
aS'lambda'
p1109
aS'data integrity'
p1110
aS'wlan'
p1111
aS'release management'
p1112
aS'revenue'
p1113
aS'software configuration management'
p1114
aS'dcom'
p1115
aS'cmmi'
p1116
aS'human capital management'
p1117
aS'bdd'
p1118
aS'software licensing'
p1119
aS'accountability'
p1120
aS'adobe flash'
p1121
aS'data storage'
p1122
aS'vsts'
p1123
aS'ian'
p1124
aS'ofdm'
p1125
aS'workaround'
p1126
aS'sgsn'
p1127
aS'fms'
p1128
aS'fm'
p1129
aS'attack'
p1130
aS'zend framework'
p1131
aS'load balancer'
p1132
aS'asset tracking'
p1133
aS'iaas'
p1134
aS'iap'
p1135
aS'mining'
p1136
aS'shell'
p1137
aS'hub'
p1138
aS'software program'
p1139
aS'sequence diagram'
p1140
aS'rsa'
p1141
aS'mobile application'
p1142
aS'cloud os'
p1143
aS'module'
p1144
aS'mems'
p1145
aS'web application firewall'
p1146
aS'public cloud'
p1147
aS'isolation'
p1148
aS'mbps'
p1149
aS'ssl vpn'
p1150
aS'garbage collection'
p1151
aS'r'
aS'software architect'
p1152
aS'enterprise network'
p1153
aS'database design'
p1154
aS'open vswitch'
p1155
aS'bts'
p1156
aS'browser'
p1157
aS'windows service'
p1158
aS'storage management software'
p1159
aS'app store'
p1160
aS'application framework'
p1161
aS'partnership'
p1162
aS'sar'
p1163
aS'sap'
p1164
aS'knowledge base'
p1165
aS'integration testing'
p1166
aS'wcs'
p1167
aS'sdr'
p1168
aS'min'
p1169
aS'asp.net'
p1170
aS'mic'
p1171
aS'lotusscript'
p1172
aS'arm'
p1173
aS'analog'
p1174
aS'j#'
p1175
aS'wan accelerator'
p1176
aS'markup language'
p1177
aS'channel'
p1178
aS'buffer'
p1179
aS'collaboration'
p1180
aS'aws'
p1181
aS'cdma2000'
p1182
aS'ftp server'
p1183
aS'beta'
p1184
aS'information system'
p1185
aS'web services software'
p1186
aS'terminal server'
p1187
aS'icon'
p1188
aS'native application'
p1189
aS'system testing'
p1190
aS'switch router'
p1191
aS'sql server'
p1192
aS'zfs'
p1193
aS'open data'
p1194
aS'microsoft word'
p1195
aS'mrp'
p1196
aS'ooad'
p1197
aS'level design'
p1198
aS'shell script'
p1199
aS'qos'
p1200
aS'dba'
p1201
aS'ss7'
p1202
aS'visual c++'
p1203
aS'cloud infrastructure'
p1204
aS'spyware'
p1205
aS'information management'
p1206
aS'vcap'
p1207
aS'vmm'
p1208
aS'eap'
p1209
aS'product life cycle'
p1210
aS'network architect'
p1211
aS'dll'
p1212
aS'revision control system'
p1213
aS'bug tracking'
p1214
aS'ground'
p1215
aS'xml'
p1216
aS'partners'
p1217
aS'upgrade'
p1218
aS'ui design'
p1219
aS'sdh'
p1220
aS'cache'
p1221
aS'web scraping'
p1222
aS'terminal'
p1223
aS'tape'
p1224
aS'relational database'
p1225
aS'content provider'
p1226
aS'data modeling'
p1227
aS'operating system'
p1228
aS'personal computer'
p1229
aS'test plan'
p1230
aS'tft lcd'
p1231
aS'ssl'
p1232
aS'sso'
p1233
aS'interoperability'
p1234
aS'csrf'
p1235
aS'ssd'
p1236
aS'db2'
p1237
aS'geo'
p1238
aS'qs'
p1239
aS'ios sdk'
p1240
aS'qt'
p1241
aS'amazon ec2'
p1242
aS'c++'
p1243
aS'qa'
p1244
aS'qc'
p1245
aS'acceptance test'
p1246
aS'content delivery'
p1247
aS'cloud testing'
p1248
aS'management information systems'
p1249
aS'enterprise service bus'
p1250
aS'mail server'
p1251
aS'edge switch'
p1252
aS'view'
p1253
aS'wiki'
p1254
aS'kernel'
p1255
aS'software maintenance'
p1256
aS'frame'
p1257
aS'windows mobile'
p1258
aS'packet'
p1259
aS'dect'
p1260
aS'rma'
p1261
aS'system administration'
p1262
aS'audio streaming'
p1263
aS'rmi'
p1264
aS'manufacturer'
p1265
aS'lean startup'
p1266
aS'cis'
p1267
aS'labview'
p1268
aS'outsourcing'
p1269
aS'its'
p1270
aS'lua'
p1271
aS'state'
p1272
aS'dlp'
p1273
aS'verilog'
p1274
aS'product life cycle management'
p1275
aS'source code'
p1276
aS'utm'
p1277
aS'websphere'
p1278
aS'struts framework'
p1279
aS'trojan horse'
p1280
aS'gnss'
p1281
aS'wcf'
p1282
aS'swift'
p1283
aS'distribution'
p1284
aS'tls'
p1285
aS'sap business suite'
p1286
aS'data visualization'
p1287
aS'implementing'
p1288
aS'java script'
p1289
aS'use case'
p1290
aS'aqua'
p1291
aS'powershell'
p1292
aS'netweaver'
p1293
aS'sql injection'
p1294
aS'expression'
p1295
aS'etl'
p1296
aS'ci'
p1297
aS'ucs'
p1298
aS'cm'
p1299
aS'vxworks'
p1300
aS'firewall'
p1301
aS'ca'
p1302
aS'vdsl'
p1303
aS'pos'
p1304
aS'pop'
p1305
aS'cd'
p1306
aS'variety'
p1307
aS'bpcs'
p1308
aS'zzw3'
p1309
aS'data mining'
p1310
aS'table'
p1311
aS'poc'
p1312
aS'ad'
p1313
aS'scrum master'
p1314
aS'tuning'
p1315
aS'encryption'
p1316
aS'wpa2'
p1317
aS'vts'
p1318
aS'subscriber'
p1319
aS'mathematics'
p1320
aS'file system'
p1321
aS'pci'
p1322
aS'proxy server'
p1323
aS'enterprise instant messaging'
p1324
aS'process control'
p1325
aS'prototype'
p1326
aS'pic'
p1327
aS'rdbms'
p1328
aS'c#'
p1329
aS'secure coding'
p1330
aS'c'
aS'tcpip'
p1331
aS'pbx'
p1332
aS'bms'
p1333
aS'legacy'
p1334
aS'otp'
p1335
aS'bonjour'
p1336
aS'ruby'
p1337
aS'cloud storage'
p1338
aS'eip'
p1339
aS'laser'
p1340
aS'bpml'
p1341
aS'onboarding'
p1342
aS'network troubleshooting'
p1343
aS'cvs'
p1344
aS'cursor'
p1345
aS'hdd'
p1346
aS'lan switching'
p1347
aS'ilo'
p1348
aS'intranet'
p1349
aS'eim'
p1350
aS'va'
p1351
aS'layer'
p1352
aS'smart tv'
p1353
aS'iva'
p1354
aS'flex'
p1355
aS'demo'
p1356
aS'metric'
p1357
aS'squid'
p1358
aS'vm'
p1359
aS'linkedin'
p1360
aS'smart device'
p1361
aS'parse'
p1362
aS'telephony'
p1363
aS'vr'
p1364
aS'vs'
p1365
aS'cobol'
p1366
aS'ivr'
p1367
aS'lcd tv'
p1368
aS'file format'
p1369
aS'capture'
p1370
aS'uptime'
p1371
aS'pat'
p1372
aS'media'
p1373
aS'iscsi'
p1374
aS'connection'
p1375
aS'authentication'
p1376
aS'html'
p1377
aS'pad'
p1378
aS'work flow'
p1379
aS'android'
p1380
aS'pal'
p1381
aS'pam'
p1382
aS'root cause analysis'
p1383
aS'thunderbolt'
p1384
aS'rfid'
p1385
aS'ios'
p1386
aS'web server'
p1387
aS'automation'
p1388
aS'c++ programming language'
p1389
aS'dcm'
p1390
aS'hsdpa'
p1391
aS'it operations'
p1392
aS'php'
p1393
aS'wpa'
p1394
aS'amqp'
p1395
aS'database administrator'
p1396
aS'tracking'
p1397
aS'macro'
p1398
aS'markup'
p1399
aS'igp'
p1400
aS'ccs'
p1401
aS'data center'
p1402
aS'it services'
p1403
aS'dhcp'
p1404
aS'pda'
p1405
aS'ccd'
p1406
aS'model'
p1407
aS'modem'
p1408
aS'assembly language'
p1409
aS'online service'
p1410
aS'nosql'
p1411
aS'android os'
p1412
aS'leadership skills'
p1413
aS'xen'
p1414
aS'rest'
p1415
aS'database developer'
p1416
aS'server room'
p1417
aS'tcl'
p1418
aS'change management'
p1419
aS'mosfet'
p1420
aS'samba'
p1421
aS'autocad'
p1422
aS'desktop'
p1423
aS'blog'
p1424
aS'cc'
p1425
aS'network administration'
p1426
aS'codec'
p1427
aS'dqa'
p1428
aS'ada'
p1429
aS'gms'
p1430
aS'ado'
p1431
aS'adm'
p1432
aS'ami'
p1433
aS'data structure'
p1434
aS'saturation'
p1435
aS'nvr'
p1436
aS'content delivery network'
p1437
aS'ecr'
p1438
aS'windows server'
p1439
aS'amd'
p1440
aS'.net framework'
p1441
aS'office suite'
p1442
aS'sccm'
p1443
aS'dbase'
p1444
aS'virtualization software'
p1445
aS'call center'
p1446
aS'credentials'
p1447
aS'file server'
p1448
aS'xss'
p1449
aS'wbs'
p1450
aS'vmware esx'
p1451
aS'programmable logic controller'
p1452
aS'dvb'
p1453
aS'blackberry'
p1454
aS'pipelining'
p1455
aS'fiber optic'
p1456
aS'passionate'
p1457
aS'storage server'
p1458
aS'cisco'
p1459
aS'rpg'
p1460
aS'zigbee'
p1461
aS'twitter'
p1462
aS'library'
p1463
aS'gpib'
p1464
aS'loop'
p1465
aS'home'
p1466
aS'uefi'
p1467
aS'tms'
p1468
aS'random testing'
p1469
aS'overlay'
p1470
aS'ddr'
p1471
aS'redis'
p1472
aS'legal'
p1473
aS'ddk'
p1474
aS'augmented reality'
p1475
aS'esb'
p1476
aS'provides'
p1477
aS'ddl'
p1478
aS'ott'
p1479
aS'nfs'
p1480
aS'programming language'
p1481
aS'scrum'
p1482
aS'nms'
p1483
aS'tdd'
p1484
aS'maven'
p1485
aS'bar code'
p1486
aS'flow chart'
p1487
aS'new product development'
p1488
aS'software engineering'
p1489
aS'vb net'
p1490
aS'ok'
p1491
aS'socket'
p1492
aS'ace'
p1493
aS'oa'
p1494
aS'spss'
p1495
aS'home networking'
p1496
aS'database server'
p1497
aS'carrier'
p1498
aS'dfx'
p1499
aS'access layer'
p1500
aS'act'
p1501
aS'project plan'
p1502
aS'nds'
p1503
aS'ot'
p1504
aS'processor'
p1505
aS'op'
p1506
aS'outlook'
p1507
aS'netapp storage'
p1508
aS'browser compatibility'
p1509
aS'enterprise application'
p1510
aS'orm'
p1511
aS'trouble ticket'
p1512
aS'operator'
p1513
aS'vp'
p1514
aS'range'
p1515
aS'igmp'
p1516
aS'log shipping'
p1517
aS'w3c'
p1518
aS'ehr'
p1519
aS'ad hoc testing'
p1520
aS'snmp'
p1521
aS'json'
p1522
aS'owasp'
p1523
aS'los'
p1524
aS'core network'
p1525
aS'ipv4'
p1526
aS'ipv6'
p1527
aS'mpls vpn'
p1528
aS'vas'
p1529
aS'server virtualization'
p1530
aS'artificial intelligence'
p1531
aS'eai'
p1532
aS'repeater'
p1533
aS'bounce rate'
p1534
aS'bus'
p1535
aS'ibm pc'
p1536
aS'application program'
p1537
aS'volume'
p1538
aS'hi'
p1539
aS'gain'
p1540
aS'oauth'
p1541
aS'methodologies'
p1542
aS'bluetooth'
p1543
aS'spice'
p1544
aS'dma'
p1545
aS'fragmentation'
p1546
aS'waste'
p1547
aS'wafer'
p1548
aS'embedded'
p1549
aS'dml'
p1550
aS'hosting'
p1551
aS'byoc'
p1552
aS'meta'
p1553
aS'byod'
p1554
aS'chipset'
p1555
aS'tiptop'
p1556
aS'line in'
p1557
aS'ac'
p1558
aS'adas'
p1559
aS'pc game'
p1560
aS'scanner'
p1561
aS'pin'
p1562
aS'af'
p1563
aS'ai'
p1564
aS'sqoop'
p1565
aS'am'
p1566
aS'nagios'
p1567
aS'aq'
p1568
aS'objective-c'
p1569
aS'ar'
p1570
aS'file'
p1571
aS'adsl'
p1572
aS'wwan'
p1573
aS'digital signal processing'
p1574
aS'cmos'
p1575
aS'hld'
p1576
aS'application software'
p1577
aS'antenna'
p1578
aS'calibration'
p1579
aS'event'
p1580
aS'hpc'
p1581
aS'network video recorder'
p1582
aS'riak'
p1583
aS'openid'
p1584
aS'amoled'
p1585
aS'connected devices'
p1586
aS'a+'
p1587
aS'includes'
p1588
aS'ansi'
p1589
aS'web browser'
p1590
aS'dropbox'
p1591
aS'ghost'
p1592
aS'cpl'
p1593
aS'sass'
p1594
aS'command line'
p1595
aS'silicon valley'
p1596
aS'cpc'
p1597
aS'cpe'
p1598
aS'c++.net'
p1599
aS'interaction design'
p1600
aS'product manager'
p1601
aS'storage management'
p1602
aS'validation'
p1603
aS'resolution'
p1604
aS'cpu'
p1605
aS'hmi'
p1606
atRp1607
.