c__builtin__
set
p1
((lp2
S'app'
p3
aS'linux'
p4
aS'mysql'
p5
aS'xml'
p6
aS'java'
p7
aS'asp.net'
p8
aS'c#.net'
p9
aS'python'
p10
aS'html'
p11
aS'android'
p12
aS'css'
p13
aS'asp'
p14
aS'c#'
p15
aS'javascript'
p16
aS'ios'
p17
aS'ajax'
p18
aS'jsp'
p19
aS'sql'
p20
aS'php'
p21
aS'jquery'
p22
aS'c'
aS'.net'
p23
aS'c++'
p24
aS'visual basic'
p25
atRp26
.