c__builtin__
set
p1
((lp2
S'outlook'
p3
aS'app'
p4
aS'linux'
p5
aS'zzw3'
p6
aS'mysql'
p7
aS'java'
p8
aS'asp.net'
p9
aS'html'
p10
aS'android'
p11
aS'c#'
p12
aS'windows server'
p13
aS'javascript'
p14
aS'ios'
p15
aS'ajax'
p16
aS'sql'
p17
aS'php'
p18
aS'jquery'
p19
aS'c'
aS'erp'
p20
aS'.net'
p21
aS'c++'
p22
aS'oracle'
p23
aS'visual basic'
p24
atRp25
.