c__builtin__
set
p1
((lp2
S'tcp ip'
p3
aS'windows xp'
p4
aS'app'
p5
aS'visual c++'
p6
aS'outlook'
p7
aS'unix'
p8
aS'visual studio'
p9
aS'zzw3'
p10
aS'linux'
p11
aS'xml'
p12
aS'java'
p13
aS'asp.net'
p14
aS'c#.net'
p15
aS'c#'
p16
aS'html'
p17
aS'android'
p18
aS'css'
p19
aS'asp'
p20
aS'python'
p21
aS'windows server'
p22
aS'javascript'
p23
aS'ios'
p24
aS'ajax'
p25
aS'jsp'
p26
aS'sql'
p27
aS'php'
p28
aS'jquery'
p29
aS'c'
aS'erp'
p30
aS'mysql'
p31
aS'java script'
p32
aS'.net'
p33
aS'programming'
p34
aS'c++'
p35
aS'oracle'
p36
aS'visual basic'
p37
atRp38
.