c__builtin__
set
p1
((lp2
S'scm'
p3
aS'busybox'
p4
aS'bapi'
p5
aS'windows xp'
p6
aS'web service'
p7
aS'scc'
p8
aS'smr'
p9
aS'umts'
p10
aS'mp4'
p11
aS'bytecode'
p12
aS'system design'
p13
aS'user experience design'
p14
aS'ptt'
p15
aS'integrity'
p16
aS'scp'
p17
aS'content management'
p18
aS'scr'
p19
aS'rd'
p20
aS'security manager'
p21
aS'wms'
p22
aS'directory services'
p23
aS'apple push notification service'
p24
aS'rtos'
p25
aS'dsl'
p26
aS'c6'
p27
aS'tn'
p28
aS'usability'
p29
aS'matlab'
p30
aS'spec'
p31
aS'ta'
p32
aS'application integration'
p33
aS'code review'
p34
aS'software quality assurance'
p35
aS'faq'
p36
aS'computer networking'
p37
aS'risc'
p38
aS'mpi'
p39
aS'replication'
p40
aS'wimax'
p41
aS'balancing'
p42
aS'mps'
p43
aS'network server'
p44
aS'an application'
p45
aS'edm'
p46
aS'servlet'
p47
aS'tagging'
p48
aS'android tablet'
p49
aS'unity3d'
p50
aS'cable'
p51
aS'cmc'
p52
aS'upload'
p53
aS'smb'
p54
aS'vector'
p55
aS'delegate'
p56
aS'it consultant'
p57
aS'gc'
p58
aS'vpn server'
p59
aS'cms'
p60
aS'ups'
p61
aS'mp3'
p62
aS'secure http'
p63
aS'webdav'
p64
aS'netbeans'
p65
aS'network connectivity'
p66
aS'vb .net'
p67
aS'adobe acrobat'
p68
aS'vbscript'
p69
aS'batch'
p70
aS'systems analysis'
p71
aS'zero'
p72
aS'street'
p73
aS'virtualization'
p74
aS'network infrastructure'
p75
aS'udp'
p76
aS'gm'
p77
aS'mpeg'
p78
aS'enterprise server'
p79
aS'mnd'
p80
aS'cloud services'
p81
aS'asic'
p82
aS'nand'
p83
aS'decoding'
p84
aS'mainframe'
p85
aS'mac os'
p86
aS'mcitp'
p87
aS'microchip'
p88
aS'ner'
p89
aS'method'
p90
aS'dashboard'
p91
aS'software development life cycle'
p92
aS'hash'
p93
aS'server colocation'
p94
aS'test script'
p95
aS'machine vision'
p96
aS'tcl tk'
p97
aS'component'
p98
aS'answers'
p99
aS'codebase'
p100
aS'modular'
p101
aS'provisioning'
p102
aS'mes'
p103
aS'b2c'
p104
aS'b2b'
p105
aS'information technology'
p106
aS'application security'
p107
aS'vulnerability'
p108
aS'wdm'
p109
aS'sla'
p110
aS'function key'
p111
aS'wds'
p112
aS'drm'
p113
aS'advertising'
p114
aS'network monitoring'
p115
aS'iis'
p116
aS'computer architecture'
p117
aS'hw'
p118
aS'search engine optimization'
p119
aS'jailbreak'
p120
aS'unix'
p121
aS'vc'
p122
aS'ha storage'
p123
aS'appliances'
p124
aS'service desk'
p125
aS'mobile advertising'
p126
aS'device driver'
p127
aS'landscape'
p128
aS'management software'
p129
aS'open source'
p130
aS'foxpro'
p131
aS'instant message'
p132
aS'technology services'
p133
aS'rhel'
p134
aS'dns'
p135
aS'vi'
p136
aS'hardware troubleshooting'
p137
aS'project planning'
p138
aS'authorization'
p139
aS'memory bus'
p140
aS'jmx'
p141
aS'relay'
p142
aS'jms'
p143
aS'yahoo'
p144
aS'jpg'
p145
aS'vpc'
p146
aS'vpn'
p147
aS'webmaster'
p148
aS'network administrator'
p149
aS'md'
p150
aS'erp'
p151
aS'mb'
p152
aS'database security'
p153
aS'eclipse'
p154
aS'junit'
p155
aS'erd'
p156
aS'mv'
p157
aS'san security'
p158
aS'mp'
p159
aS'transparency'
p160
aS'visual basic'
p161
aS'root'
p162
aS'scripting'
p163
aS'atm'
p164
aS'skype'
p165
aS'smtp'
p166
aS'uat'
p167
aS'software development process'
p168
aS'apache tomcat'
p169
aS'scheduling'
p170
aS'service provider'
p171
aS'csd'
p172
aS'sharepoint'
p173
aS'csa'
p174
aS'solaris'
p175
aS'csb'
p176
aS'sata'
p177
aS'c sharp'
p178
aS'actionscript'
p179
aS'c#.net1.'
p180
aS'record'
p181
aS'csv'
p182
aS'product release'
p183
aS'css'
p184
aS'csr'
p185
aS'fp'
p186
aS'gaming'
p187
aS'mpm'
p188
aS'modulation'
p189
aS'service levels'
p190
aS'lag'
p191
aS'storage capacity'
p192
aS'fb'
p193
aS'fc'
p194
aS'cognos'
p195
aS'fi'
p196
aS'parallel'
p197
aS'workstation'
p198
aS'business systems analyst'
p199
aS'pv'
p200
aS'wins'
p201
aS'bootstrap'
p202
aS'spring framework'
p203
aS'django'
p204
aS'domain name'
p205
aS'scsi'
p206
aS'industrial software'
p207
aS'storage device'
p208
aS'data aggregation'
p209
aS'vfp'
p210
aS'operations'
p211
aS'photoshop'
p212
aS'network security'
p213
aS'feedback'
p214
aS'xmpp'
p215
aS'jpeg'
p216
aS'pascal'
p217
aS'interpersonal'
p218
aS'concurrency'
p219
aS'responsive'
p220
aS'system configuration'
p221
aS'serdes'
p222
aS'enterprise class'
p223
aS'pcs'
p224
aS'fix'
p225
aS'unity'
p226
aS'edge'
p227
aS'computer system'
p228
aS'ims'
p229
aS'glassfish'
p230
aS'voip'
p231
aS'pcb'
p232
aS'fraud detection'
p233
aS'mobile device'
p234
aS'java object'
p235
aS'rtsp'
p236
aS'motivated'
p237
aS'software framework'
p238
aS'security architecture'
p239
aS'safe'
p240
aS'ceh'
p241
aS'orcad'
p242
aS'refactoring'
p243
aS'communities'
p244
aS'ip camera'
p245
aS'parallel processing'
p246
aS'odbc'
p247
aS'intelligent platform management interface'
p248
aS'mcsd'
p249
aS'token'
p250
aS'web development'
p251
aS'continuous delivery'
p252
aS'mobile payment'
p253
aS'hadoop ecosystem'
p254
aS'gprs'
p255
aS'accelerator'
p256
aS'mdm'
p257
aS'core switch'
p258
aS'knowledge management'
p259
aS'idea'
p260
aS'mapreduce'
p261
aS'array'
p262
aS'time to market'
p263
aS'ftp'
p264
aS'catia'
p265
aS'quality'
p266
aS'ha'
p267
aS'smt'
p268
aS'sms'
p269
aS'dss'
p270
aS'dsp'
p271
aS'semiconductor'
p272
aS'race'
p273
aS'ra'
p274
aS'sdlc'
p275
aS'distributed system'
p276
aS'rm'
p277
aS'offline'
p278
aS'smd'
p279
aS'dsc'
p280
aS'ado.net'
p281
aS'disk'
p282
aS'network design'
p283
aS'management information system'
p284
aS'localization'
p285
aS'ntp'
p286
aS'data scientist'
p287
aS'free'
p288
aS'revision control'
p289
aS'asa'
p290
aS'cookie'
p291
aS'mobile'
p292
aS'model view controller'
p293
aS'visual foxpro'
p294
aS'estimate'
p295
aS'gameplay'
p296
aS'acrobat'
p297
aS'bash'
p298
aS'network performance'
p299
aS'ate'
p300
aS'thread'
p301
aS'ata'
p302
aS'drupal'
p303
aS'atl'
p304
aS'isp'
p305
aS'silicon'
p306
aS'mvc'
p307
aS'iso'
p308
aS'isn'
p309
aS'circuit'
p310
aS'unit test'
p311
aS'cdma'
p312
aS'microsoft azure'
p313
aS'benchmarking'
p314
aS'windows ce'
p315
aS'powerbuilder'
p316
aS'features'
p317
aS'system programming'
p318
aS'google play'
p319
aS'load balancing'
p320
aS'dfs'
p321
aS'photoimpact'
p322
aS'production environment'
p323
aS'encryption algorithm'
p324
aS'wpf'
p325
aS'gpo'
p326
aS'vhdl'
p327
aS'tor'
p328
aS'tos'
p329
aS'top'
p330
aS'struts'
p331
aS'wireshark'
p332
aS'rails'
p333
aS'domain controller'
p334
aS'weblogic'
p335
aS'gpu'
p336
aS'thin client'
p337
aS'system requirements'
p338
aS'gps'
p339
aS'text mining'
p340
aS'it strategy'
p341
aS'relationship'
p342
aS'rup'
p343
aS'microsoft windows'
p344
aS'raid controller'
p345
aS'apache spark'
p346
aS'windows embedded'
p347
aS'transaction'
p348
aS'nca'
p349
aS'jquery'
p350
aS'regular expression'
p351
aS'cable modem'
p352
aS'data collection'
p353
aS'aaa'
p354
aS'software life cycle'
p355
aS'evdo'
p356
aS'stl'
p357
aS'solution architecture'
p358
aS'final'
p359
aS'development environment'
p360
aS'embedded system'
p361
aS'restful'
p362
aS'continuous integration'
p363
aS'enhancement'
p364
aS'bridge'
p365
aS'lbs'
p366
aS'systems analyst'
p367
aS'massively parallel processing'
p368
aS'rac'
p369
aS'ran'
p370
aS'spectrum'
p371
aS'business intelligence'
p372
aS'system integration'
p373
aS'angularjs'
p374
aS'amazon web services'
p375
aS'always on'
p376
aS'same time'
p377
aS'latency'
p378
aS'lib'
p379
aS'user experience'
p380
aS'software architecture'
p381
aS'rhce'
p382
aS'firmware'
p383
aS'pmi'
p384
aS'toeic'
p385
aS'command'
p386
aS'wireless network'
p387
aS'rich media'
p388
aS'resource allocation'
p389
aS'server os'
p390
aS'memory'
p391
aS'jsf'
p392
aS'rtd'
p393
aS'index'
p394
aS'service level agreement'
p395
aS'data warehouse'
p396
aS'bsp'
p397
aS'architects'
p398
aS'bsm'
p399
aS'virus'
p400
aS'jsp'
p401
aS'moss'
p402
aS'scripts'
p403
aS'bsd'
p404
aS'data architect'
p405
aS'bsc'
p406
aS'consumer electronics'
p407
aS'audio'
p408
aS'dom'
p409
aS'tpm'
p410
aS'partition'
p411
aS'km'
p412
aS'microsoft project'
p413
aS'tps'
p414
aS'search engine'
p415
aS'caching'
p416
aS'dos'
p417
aS'baseband'
p418
aS'virtual machine'
p419
aS'hyper'
p420
aS'rtc'
p421
aS'xcode'
p422
aS'xdsl'
p423
aS'visual studio'
p424
aS'vulnerability assessment'
p425
aS'rtp'
p426
aS'tft'
p427
aS'internet security'
p428
aS'android app'
p429
aS'availability'
p430
aS'docsis'
p431
aS'access'
p432
aS'itil'
p433
aS'virtual server'
p434
aS'layout'
p435
aS'big data'
p436
aS'distributed'
p437
aS'console'
p438
aS'dwdm'
p439
aS'ldap'
p440
aS'ocp'
p441
aS'mobile network'
p442
aS'dm'
p443
aS'microprocessor'
p444
aS'cryptography'
p445
aS'ad domain'
p446
aS'android market'
p447
aS'de'
p448
aS'dc'
p449
aS'da'
p450
aS'next'
p451
aS'amazon'
p452
aS'synchronization'
p453
aS'downtime'
p454
aS'dv'
p455
aS'dw'
p456
aS'netflow'
p457
aS'dr'
p458
aS'compiler'
p459
aS'rfp'
p460
aS'bar'
p461
aS'stb'
p462
aS'ietf'
p463
aS'emi'
p464
aS'abap'
p465
aS'public'
p466
aS'rfc'
p467
aS'zabbix'
p468
aS'architecture'
p469
aS'ems'
p470
aS'object oriented programming'
p471
aS'rfi'
p472
aS'embedded device'
p473
aS'high availability'
p474
aS'crm'
p475
aS'arp'
p476
aS'set'
p477
aS'active directory'
p478
aS'motherboard'
p479
aS'peripheral'
p480
aS'startup'
p481
aS'sku'
p482
aS'radius'
p483
aS'seo'
p484
aS'web designer'
p485
aS'microcode'
p486
aS'foss'
p487
aS'application server'
p488
aS'techniques'
p489
aS'capacity'
p490
aS'hdmi'
p491
aS'delphi'
p492
aS'mobile games'
p493
aS'familiarity'
p494
aS'router firmware'
p495
aS'web developer'
p496
aS'mmc'
p497
aS'vendor management'
p498
aS'contact us'
p499
aS'ad hoc'
p500
aS'dedicated server'
p501
aS'wf'
p502
aS'server software'
p503
aS'creating'
p504
aS'xslt'
p505
aS'javascript'
p506
aS'it infrastructure'
p507
aS'scalability'
p508
aS'oms'
p509
aS'html5'
p510
aS'wp'
p511
aS'interface'
p512
aS'j2se'
p513
aS'user exit'
p514
aS'inter process communication'
p515
aS'topology'
p516
aS'j2ee'
p517
aS'license'
p518
aS'web client'
p519
aS'dalvik'
p520
aS'load testing'
p521
aS'pdm'
p522
aS'customer support'
p523
aS'context'
p524
aS'integrated software'
p525
aS'pdf'
p526
aS'tftp'
p527
aS'audio codec'
p528
aS'com'
p529
aS'data integration'
p530
aS'con'
p531
aS'switching'
p532
aS'geolocation'
p533
aS'data mart'
p534
aS'debugging'
p535
aS'simple'
p536
aS'soap'
p537
aS'distributed computing'
p538
aS'community'
p539
aS'loader'
p540
aS'lambda architecture'
p541
aS'c shell'
p542
aS'data access'
p543
aS'linux'
p544
aS'proof of concept'
p545
aS'panel'
p546
aS'backend'
p547
aS'recommendation engine'
p548
aS'java'
p549
aS'pw'
p550
aS'sem'
p551
aS'basis'
p552
aS'infotainment'
p553
aS'deep learning'
p554
aS'virtual reality'
p555
aS'patch'
p556
aS'extraction'
p557
aS'pg'
p558
aS'dreamweaver'
p559
aS'tutorials'
p560
aS'pi'
p561
aS'adc'
p562
aS'website'
p563
aS'rich client'
p564
aS'information management system'
p565
aS'data warehouse architect'
p566
aS'great'
p567
aS'web hosting'
p568
aS'maps'
p569
aS'pxe'
p570
aS'wintel'
p571
aS'feasibility study'
p572
aS'mcu'
p573
aS'mct'
p574
aS'end user'
p575
aS'mcp'
p576
aS'commerce'
p577
aS'iterative development'
p578
aS'gnu'
p579
aS'radio frequency'
p580
aS'whql'
p581
aS'cts'
p582
aS'mpls'
p583
aS'hacking'
p584
aS'air'
p585
aS'aim'
p586
aS'aio'
p587
aS'optimization'
p588
aS'technical support'
p589
aS'hypervisor'
p590
aS'product management'
p591
aS'dms'
p592
aS'anchor'
p593
aS'procedure'
p594
aS'vod'
p595
aS'compliance'
p596
aS'ir'
p597
aS'rip'
p598
aS'image sensor'
p599
aS'database administration'
p600
aS'network management'
p601
aS'im'
p602
aS'il'
p603
aS'ia'
p604
aS'ic'
p605
aS'ie'
p606
aS'id'
p607
aS'lock screen'
p608
aS'ccnp'
p609
aS'baseline'
p610
aS'patent'
p611
aS'msql'
p612
aS'couchdb'
p613
aS'object storage'
p614
aS'hadoop'
p615
aS'knowledge management system'
p616
aS'quant'
p617
aS'ccna'
p618
aS'ipmi'
p619
aS'modification'
p620
aS'internet of things'
p621
aS'mcse'
p622
aS'storage networking'
p623
aS'social platform'
p624
aS'stored procedure'
p625
aS'raid'
p626
aS'x86'
p627
aS'juniper'
p628
aS'hana'
p629
aS'live support'
p630
aS'qualifications'
p631
aS'communication software'
p632
aS'portal'
p633
aS'mips'
p634
aS'hipaa'
p635
aS'stack'
p636
aS'task'
p637
aS'pattern recognition'
p638
aS'continuous improvement'
p639
aS'disk array'
p640
aS'ipsec vpn'
p641
aS'practices'
p642
aS'program manager'
p643
aS'consistency'
p644
aS'docker'
p645
aS'i2c'
p646
aS'gsm'
p647
aS'help desk'
p648
aS'sap hana'
p649
aS'protocol'
p650
aS'mom'
p651
aS'laptop'
p652
aS'deployment'
p653
aS'networks'
p654
aS'mid'
p655
aS'mysql'
p656
aS'best practice'
p657
aS'visualization'
p658
aS'hal'
p659
aS'tablet'
p660
aS'elb'
p661
aS'agile'
p662
aS'scalable'
p663
aS'kinect'
p664
aS'fortran'
p665
aS'vswitch'
p666
aS'winform'
p667
aS'network protocols'
p668
aS'video on demand'
p669
aS'foundation framework'
p670
aS'vendor'
p671
aS'design thinking'
p672
aS'microcontroller'
p673
aS'web office'
p674
aS'lcd'
p675
aS'private'
p676
aS'video compression'
p677
aS'opc'
p678
aS'bit'
p679
aS'designers'
p680
aS'social networking'
p681
aS'ipsec'
p682
aS'vcm'
p683
aS'activex'
p684
aS'semi'
p685
aS'signal'
p686
aS'bpm'
p687
aS'xbox'
p688
aS'web content management'
p689
aS'online marketing'
p690
aS'designing'
p691
aS'bpr'
p692
aS'android platform'
p693
aS'project management software'
p694
aS'system management'
p695
aS'security'
p696
aS'xaml'
p697
aS'linux kernel'
p698
aS'prototyping'
p699
aS'functional reactive programming'
p700
aS'project management'
p701
aS'system administrator'
p702
aS'distributed development'
p703
aS'communications'
p704
aS'broadband'
p705
aS'data migration'
p706
aS'saas'
p707
aS'ice'
p708
aS'gateway'
p709
aS'power user'
p710
aS'cnc'
p711
aS'web services'
p712
aS'uml'
p713
aS'hcm'
p714
aS'ict'
p715
aS'bd'
p716
aS'core'
p717
aS'teradata'
p718
aS'ba'
p719
aS'sfc'
p720
aS'barcode'
p721
aS'bi'
p722
aS'vdi'
p723
aS'bw'
p724
aS'plc'
p725
aS'content management system'
p726
aS'oem'
p727
aS'output'
p728
aS'post'
p729
aS'mssql'
p730
aS'pipeline'
p731
aS'postgresql'
p732
aS'uart'
p733
aS'private cloud'
p734
aS'ids'
p735
aS'simulation'
p736
aS'bgp'
p737
aS'user experience designer'
p738
aS'fcc'
p739
aS'xsl'
p740
aS'azure'
p741
aS'commit'
p742
aS'j2me'
p743
aS'ide'
p744
aS'microsoft office'
p745
aS'web programming'
p746
aS'ida'
p747
aS'soa'
p748
aS'soc'
p749
aS'garbage'
p750
aS'presence'
p751
aS'parsing'
p752
aS'sop'
p753
aS'contingency plan'
p754
aS'haskell'
p755
aS'troubleshooting'
p756
aS'ppt'
p757
aS'direct3d'
p758
aS'msp'
p759
aS'manual testing'
p760
aS'clustering'
p761
aS'wan'
p762
aS'jdbc'
p763
aS'gis'
p764
aS'spam'
p765
aS'waf'
p766
aS'demand forecasting'
p767
aS'pabx'
p768
aS'bios'
p769
aS'heroku'
p770
aS'wordpress'
p771
aS'forward'
p772
aS'tcpdump'
p773
aS'functional testing'
p774
aS'wap'
p775
aS'responsive web design'
p776
aS'business process analysis'
p777
aS'fpga'
p778
aS'webcam'
p779
aS'paypal'
p780
aS'linq'
p781
aS'wireless'
p782
aS'heap'
p783
aS'sdn'
p784
aS'pwm'
p785
aS'static timing analysis'
p786
aS'fda'
p787
aS'csslp'
p788
aS'ux'
p789
aS'streaming'
p790
aS'network layer'
p791
aS'network software'
p792
aS'middleware'
p793
aS'jboss'
p794
aS'devices'
p795
aS'cross platform'
p796
aS'data architecture'
p797
aS'ul'
p798
aS'ui'
p799
aS'capacity planning'
p800
aS'in sap'
p801
aS'ug'
p802
aS'citrix xenserver'
p803
aS'uc'
p804
aS'constant'
p805
aS'classic'
p806
aS'microsoft exchange'
p807
aS'parser'
p808
aS'accessibility'
p809
aS'proven'
p810
aS'ddos'
p811
aS'chat'
p812
aS'organizational'
p813
aS'accounting'
p814
aS'network architecture'
p815
aS'acl'
p816
aS'facebook'
p817
aS'ni'
p818
aS'application performance'
p819
aS'web design'
p820
aS'nb'
p821
aS'nc'
p822
aS'excel'
p823
aS'cics'
p824
aS'nas'
p825
aS'windows forms'
p826
aS'nat'
p827
aS'digital'
p828
aS'jenkins'
p829
aS'best practices'
p830
aS'developers'
p831
aS'load balancing router'
p832
aS'nice'
p833
aS'mongodb'
p834
aS'mcdba'
p835
aS'kvm'
p836
aS'update'
p837
aS'build tool'
p838
aS'system time'
p839
aS'sql'
p840
aS'variable'
p841
aS'ess'
p842
aS'sqa'
p843
aS'bot'
p844
aS'svn'
p845
aS'help desk management'
p846
aS'independently'
p847
aS'disaster recovery'
p848
aS'dvi'
p849
aS'cloud computing'
p850
aS'scala'
p851
aS'youtube'
p852
aS'tomcat'
p853
aS'unit testing'
p854
aS'internet desktop'
p855
aS'oltp'
p856
aS'memory card'
p857
aS'oracle'
p858
aS'n1'
p859
aS'sniffer'
p860
aS'fabless'
p861
aS'session initiation protocol'
p862
aS'edc'
p863
aS'eda'
p864
aS'rom'
p865
aS'process management'
p866
aS'nlp'
p867
aS'lean'
p868
aS'oss'
p869
aS'edi'
p870
aS'wordperfect'
p871
aS'resistance'
p872
aS'framwork'
p873
aS'osi'
p874
aS'mobile web'
p875
aS'solution stack'
p876
aS'informix'
p877
aS'application firewall'
p878
aS'xen hypervisor'
p879
aS'query'
p880
aS'ror'
p881
aS'gl'
p882
aS'ux designer'
p883
aS'email server'
p884
aS'quality assurance'
p885
aS'jvm'
p886
aS'giga'
p887
aS'cdn'
p888
aS'smartphone'
p889
aS'string'
p890
aS'wcdma'
p891
aS'cocoa touch'
p892
aS'information security'
p893
aS'ccsp'
p894
aS'vpn firewall'
p895
aS'cellular'
p896
aS'join'
p897
aS'fan'
p898
aS'web form'
p899
aS'windows client'
p900
aS'transmission'
p901
aS'scripting language'
p902
aS'gui'
p903
aS'michael'
p904
aS'ruby on rails'
p905
aS'hive'
p906
aS'olap'
p907
aS'session'
p908
aS'diy'
p909
aS'asp'
p910
aS'hybrid cloud'
p911
aS'rack'
p912
aS'cgi'
p913
aS'tcp ip'
p914
aS'pmp'
p915
aS'design pattern'
p916
aS'pms'
p917
aS'cfd'
p918
aS'noise'
p919
aS'odm'
p920
aS'pmc'
p921
aS'pmo'
p922
aS'rrs'
p923
aS'port'
p924
aS'vmware'
p925
aS'windows nt'
p926
aS'problem management'
p927
aS'hdfs'
p928
aS'bdc'
p929
aS'video conferencing'
p930
aS'multimedia'
p931
aS'smart card'
p932
aS'blade server'
p933
aS'cell'
p934
aS'winrt'
p935
aS'template'
p936
aS'sdp'
p937
aS'relational'
p938
aS'isapi'
p939
aS'scada'
p940
aS'performant'
p941
aS'supporting'
p942
aS'bo'
p943
aS'led'
p944
aS'instant messaging'
p945
aS'microelectronics'
p946
aS'commercial'
p947
aS'velocity'
p948
aS'ecc'
p949
aS'ubuntu'
p950
aS'mobile app'
p951
aS'it asset management'
p952
aS'nids'
p953
aS'vba'
p954
aS'rfid reader'
p955
aS'rdp'
p956
aS'rds'
p957
aS'bu'
p958
aS'vb.net'
p959
aS'boot loader'
p960
aS'patch management'
p961
aS'hba'
p962
aS'host'
p963
aS'test automation'
p964
aS'software testing'
p965
aS'queue'
p966
aS'document management'
p967
aS'throughput'
p968
aS'bom'
p969
aS'rdc'
p970
aS'rdb'
p971
aS'modbus'
p972
aS'web page'
p973
aS'cti'
p974
aS'relation'
p975
aS'macintosh'
p976
aS'ipc'
p977
aS'physical security'
p978
aS'ip network'
p979
aS'firefox'
p980
aS'aps'
p981
aS'app'
p982
aS'bs'
p983
aS'sqlite'
p984
aS'test driven development'
p985
aS'ips'
p986
aS'dram'
p987
aS'backup and recovery'
p988
aS'battery'
p989
aS'plm'
p990
aS'cloud'
p991
aS'it governance'
p992
aS'social media'
p993
aS'fed'
p994
aS'usb'
p995
aS'computer network'
p996
aS'mss'
p997
aS'perl'
p998
aS'embedded linux'
p999
aS'visio'
p1000
aS'netbios'
p1001
aS'msc'
p1002
aS'business logic'
p1003
aS'data management'
p1004
aS'ood'
p1005
aS'class diagram'
p1006
aS'performance management'
p1007
aS'conductor'
p1008
aS'video streaming'
p1009
aS'benchmark'
p1010
aS'visual j#'
p1011
aS'business process'
p1012
aS'oop'
p1013
aS'iic'
p1014
aS'cases'
p1015
aS'release plan'
p1016
aS'vlan'
p1017
aS'erp system'
p1018
aS'account'
p1019
aS'data source'
p1020
aS'dhtml'
p1021
aS'cas'
p1022
aS'car'
p1023
aS'functional programming'
p1024
aS'clients'
p1025
aS'machine learning'
p1026
aS'reverse engineering'
p1027
aS'wallet'
p1028
aS'tag'
p1029
aS'cam'
p1030
aS'cal'
p1031
aS'agile software development'
p1032
aS'cisa'
p1033
aS'linux pc'
p1034
aS'cad'
p1035
aS'protocol stack'
p1036
aS'tap'
p1037
aS'parallel computing'
p1038
aS'lock'
p1039
aS'chip'
p1040
aS'controller'
p1041
aS'vc++'
p1042
aS'agent'
p1043
aS'data model'
p1044
aS'web content'
p1045
aS'his'
p1046
aS'spc'
p1047
aS'vpn router'
p1048
aS'native'
p1049
aS'sip'
p1050
aS'monitoring'
p1051
aS'sit'
p1052
aS'handover'
p1053
aS'joomla'
p1054
aS'c#.net'
p1055
aS'android device'
p1056
aS'raspberry pi'
p1057
aS'lotus notes'
p1058
aS'xhtml'
p1059
aS'lotus domino'
p1060
aS'sim'
p1061
aS'asml'
p1062
aS'sd card'
p1063
aS'cloud app'
p1064
aS'npi'
p1065
aS'clone'
p1066
aS'collection'
p1067
aS'java ee'
p1068
aS'mac'
p1069
aS'notebook'
p1070
aS'it management'
p1071
aS'sns'
p1072
aS'communication protocol'
p1073
aS'aop'
p1074
aS'tier'
p1075
aS'nps'
p1076
aS'man'
p1077
aS'paas'
p1078
aS'cod'
p1079
aS'object relational mapping'
p1080
aS'ospf'
p1081
aS'sp'
p1082
aS'powerpoint'
p1083
aS'gamma'
p1084
aS'freebsd'
p1085
aS'acts'
p1086
aS'iptv'
p1087
aS'entity'
p1088
aS'quality control'
p1089
aS'statistical'
p1090
aS'cold'
p1091
aS'application architecture'
p1092
aS'ieee'
p1093
aS'vms'
p1094
aS'directx'
p1095
aS'volte'
p1096
aS'enterprise storage'
p1097
aS'gtc'
p1098
aS'monitor'
p1099
aS'arduino'
p1100
aS'banner'
p1101
aS'lamp'
p1102
aS'li'
p1103
aS'forms'
p1104
aS'window'
p1105
aS'cto'
p1106
aS'conformance'
p1107
aS'decryption'
p1108
aS'dac'
p1109
aS'python'
p1110
aS'mfc'
p1111
aS'indexing'
p1112
aS'hybrid cloud storage'
p1113
aS'noc'
p1114
aS'user interface design'
p1115
aS'dns server'
p1116
aS'safari'
p1117
aS'servers'
p1118
aS'power management'
p1119
aS'articles'
p1120
aS'term'
p1121
aS'workload'
p1122
aS'nfc'
p1123
aS'system software'
p1124
aS'.net'
p1125
aS'win32'
p1126
aS'merge'
p1127
aS'user interface'
p1128
aS'l2'
p1129
aS'mode'
p1130
aS'l1'
p1131
aS'kpi'
p1132
aS'identifier'
p1133
aS'enterprise software'
p1134
aS'oracle database'
p1135
aS'domain'
p1136
aS'mobile phone'
p1137
aS'ed'
p1138
aS'eg'
p1139
aS'ea'
p1140
aS'hlr'
p1141
aS'ec'
p1142
aS'eb'
p1143
aS'san switch'
p1144
aS'frequency'
p1145
aS'static'
p1146
aS'ex'
p1147
aS'citrix'
p1148
aS'programmer'
p1149
aS'hspa+'
p1150
aS'eq'
p1151
aS'project manager'
p1152
aS'hacker'
p1153
aS'container'
p1154
aS'openflow'
p1155
aS'return on investment'
p1156
aS'computer engineering'
p1157
aS'ejb'
p1158
aS'configuration management'
p1159
aS'android sdk'
p1160
aS'rel'
p1161
aS'ble'
p1162
aS'response time'
p1163
aS'visual studio .net'
p1164
aS'real time'
p1165
aS'product introduction'
p1166
aS'hibernate'
p1167
aS'embedded software'
p1168
aS'workflow'
p1169
aS'subject matter expert'
p1170
aS'cissp'
p1171
aS'data quality'
p1172
aS'ajax'
p1173
aS'git'
p1174
aS'emulation'
p1175
aS'regulatory'
p1176
aS'linux server'
p1177
aS'partner'
p1178
aS'visual basic .net'
p1179
aS'midi'
p1180
aS'standby'
p1181
aS'adapters'
p1182
aS'messaging'
p1183
aS'programming'
p1184
aS'int'
p1185
aS'dpi'
p1186
aS'lte'
p1187
aS'data security'
p1188
aS'security software'
p1189
aS'information architecture'
p1190
aS'eeprom'
p1191
aS'lambda'
p1192
aS'data integrity'
p1193
aS'wlan'
p1194
aS'release management'
p1195
aS'revenue'
p1196
aS'software configuration management'
p1197
aS'dcom'
p1198
aS'cmmi'
p1199
aS'human capital management'
p1200
aS'fast'
p1201
aS'bdd'
p1202
aS'software licensing'
p1203
aS'accountability'
p1204
aS'adobe flash'
p1205
aS'data storage'
p1206
aS'vsts'
p1207
aS'ian'
p1208
aS'ofdm'
p1209
aS'workaround'
p1210
aS'sgsn'
p1211
aS'fms'
p1212
aS'fm'
p1213
aS'attack'
p1214
aS'zend framework'
p1215
aS'load balancer'
p1216
aS'asset tracking'
p1217
aS'iaas'
p1218
aS'iap'
p1219
aS'mining'
p1220
aS'shell'
p1221
aS'hub'
p1222
aS'software program'
p1223
aS'sequence diagram'
p1224
aS'rsa'
p1225
aS'mobile application'
p1226
aS'cloud os'
p1227
aS'module'
p1228
aS'mems'
p1229
aS'web application firewall'
p1230
aS'ipad'
p1231
aS'public cloud'
p1232
aS'gpgpu'
p1233
aS'isolation'
p1234
aS'mbps'
p1235
aS'ssl vpn'
p1236
aS'garbage collection'
p1237
aS'r'
aS'software architect'
p1238
aS'enterprise network'
p1239
aS'database design'
p1240
aS'open vswitch'
p1241
aS'bts'
p1242
aS'browser'
p1243
aS'windows service'
p1244
aS'storage management software'
p1245
aS'app store'
p1246
aS'application framework'
p1247
aS'partnership'
p1248
aS'lin'
p1249
aS'sas'
p1250
aS'sar'
p1251
aS'sap'
p1252
aS'knowledge base'
p1253
aS'integration testing'
p1254
aS'wcs'
p1255
aS'sdr'
p1256
aS'min'
p1257
aS'asp.net'
p1258
aS'mic'
p1259
aS'lotusscript'
p1260
aS'si'
p1261
aS'arm'
p1262
aS'analog'
p1263
aS'online'
p1264
aS'j#'
p1265
aS'wan accelerator'
p1266
aS'markup language'
p1267
aS'channel'
p1268
aS'buffer'
p1269
aS'collaboration'
p1270
aS'aws'
p1271
aS'cdma2000'
p1272
aS'ftp server'
p1273
aS'beta'
p1274
aS'information system'
p1275
aS'web services software'
p1276
aS'class'
p1277
aS'terminal server'
p1278
aS'icon'
p1279
aS'native application'
p1280
aS'system testing'
p1281
aS'switch router'
p1282
aS'sql server'
p1283
aS'zfs'
p1284
aS'open data'
p1285
aS'microsoft word'
p1286
aS'mrp'
p1287
aS'ooad'
p1288
aS'databases'
p1289
aS'level design'
p1290
aS'shell script'
p1291
aS'qos'
p1292
aS'dba'
p1293
aS'ss7'
p1294
aS'visual c++'
p1295
aS'cloud infrastructure'
p1296
aS'spyware'
p1297
aS'information management'
p1298
aS'vcap'
p1299
aS'vmm'
p1300
aS'eap'
p1301
aS'product life cycle'
p1302
aS'network architect'
p1303
aS'dll'
p1304
aS'revision control system'
p1305
aS'bug tracking'
p1306
aS'ground'
p1307
aS'xml'
p1308
aS'partners'
p1309
aS'upgrade'
p1310
aS'ui design'
p1311
aS'sdh'
p1312
aS'cache'
p1313
aS'web scraping'
p1314
aS'terminal'
p1315
aS'tape'
p1316
aS'relational database'
p1317
aS'content provider'
p1318
aS'data modeling'
p1319
aS'operating system'
p1320
aS'personal computer'
p1321
aS'test plan'
p1322
aS'tft lcd'
p1323
aS'ssl'
p1324
aS'sso'
p1325
aS'interoperability'
p1326
aS'ssh'
p1327
aS'csrf'
p1328
aS'ssd'
p1329
aS'db2'
p1330
aS'geo'
p1331
aS'qs'
p1332
aS'ios sdk'
p1333
aS'qt'
p1334
aS'amazon ec2'
p1335
aS'c++'
p1336
aS'qa'
p1337
aS'qc'
p1338
aS'acceptance test'
p1339
aS'content delivery'
p1340
aS'cloud testing'
p1341
aS'management information systems'
p1342
aS'enterprise service bus'
p1343
aS'mail server'
p1344
aS'edge switch'
p1345
aS'view'
p1346
aS'wiki'
p1347
aS'kernel'
p1348
aS'software maintenance'
p1349
aS'frame'
p1350
aS'windows mobile'
p1351
aS'packet'
p1352
aS'dect'
p1353
aS'ce'
p1354
aS'rma'
p1355
aS'cim'
p1356
aS'system administration'
p1357
aS'audio streaming'
p1358
aS'rmi'
p1359
aS'manufacturer'
p1360
aS'lean startup'
p1361
aS'cis'
p1362
aS'labview'
p1363
aS'outsourcing'
p1364
aS'its'
p1365
aS'lua'
p1366
aS'state'
p1367
aS'dlp'
p1368
aS'verilog'
p1369
aS'product life cycle management'
p1370
aS'source code'
p1371
aS'utm'
p1372
aS'websphere'
p1373
aS'struts framework'
p1374
aS'trojan horse'
p1375
aS'gnss'
p1376
aS'wcf'
p1377
aS'configuration'
p1378
aS'swift'
p1379
aS'distribution'
p1380
aS'tls'
p1381
aS'sap business suite'
p1382
aS'data visualization'
p1383
aS'implementing'
p1384
aS'java script'
p1385
aS'use case'
p1386
aS'aqua'
p1387
aS'powershell'
p1388
aS'netweaver'
p1389
aS'sql injection'
p1390
aS'expression'
p1391
aS'etl'
p1392
aS'ci'
p1393
aS'ucs'
p1394
aS'cm'
p1395
aS'vxworks'
p1396
aS'firewall'
p1397
aS'ca'
p1398
aS'vdsl'
p1399
aS'pos'
p1400
aS'pop'
p1401
aS'cd'
p1402
aS'variety'
p1403
aS'bpcs'
p1404
aS'zzw3'
p1405
aS'data mining'
p1406
aS'table'
p1407
aS'poc'
p1408
aS'ad'
p1409
aS'scrum master'
p1410
aS'tuning'
p1411
aS'encryption'
p1412
aS'wpa2'
p1413
aS'vts'
p1414
aS'subscriber'
p1415
aS'mathematics'
p1416
aS'file system'
p1417
aS'pci'
p1418
aS'proxy server'
p1419
aS'enterprise instant messaging'
p1420
aS'process control'
p1421
aS'porting'
p1422
aS'prototype'
p1423
aS'engine'
p1424
aS'bmc'
p1425
aS'pic'
p1426
aS'rdbms'
p1427
aS'c#'
p1428
aS'secure coding'
p1429
aS'c'
aS'tcpip'
p1430
aS'pbx'
p1431
aS'bms'
p1432
aS'legacy'
p1433
aS'oracle db'
p1434
aS'otp'
p1435
aS'bonjour'
p1436
aS'ruby'
p1437
aS'cloud storage'
p1438
aS'protocols'
p1439
aS'case'
p1440
aS'eip'
p1441
aS'laser'
p1442
aS'bpml'
p1443
aS'onboarding'
p1444
aS'network troubleshooting'
p1445
aS'cvs'
p1446
aS'cursor'
p1447
aS'hdd'
p1448
aS'lan switching'
p1449
aS'ilo'
p1450
aS'intranet'
p1451
aS'eim'
p1452
aS'application development'
p1453
aS'va'
p1454
aS'layer'
p1455
aS'smart tv'
p1456
aS'iva'
p1457
aS'flex'
p1458
aS'demo'
p1459
aS'metric'
p1460
aS'squid'
p1461
aS'vm'
p1462
aS'linkedin'
p1463
aS'smart device'
p1464
aS'parse'
p1465
aS'telephony'
p1466
aS'vr'
p1467
aS'vs'
p1468
aS'cobol'
p1469
aS'ivr'
p1470
aS'lcd tv'
p1471
aS'rwd'
p1472
aS'file format'
p1473
aS'capture'
p1474
aS'uptime'
p1475
aS'pat'
p1476
aS'media'
p1477
aS'iscsi'
p1478
aS'connection'
p1479
aS'authentication'
p1480
aS'html'
p1481
aS'pad'
p1482
aS'work flow'
p1483
aS'android'
p1484
aS'pal'
p1485
aS'pam'
p1486
aS'root cause analysis'
p1487
aS'schemadesign'
p1488
aS'thunderbolt'
p1489
aS'rfid'
p1490
aS'ios'
p1491
aS'web server'
p1492
aS'automation'
p1493
aS'c++ programming language'
p1494
aS'dcm'
p1495
aS'hsdpa'
p1496
aS'it operations'
p1497
aS'php'
p1498
aS'wpa'
p1499
aS'amqp'
p1500
aS'database administrator'
p1501
aS'tracking'
p1502
aS'macro'
p1503
aS'markup'
p1504
aS'igp'
p1505
aS'ccs'
p1506
aS'data center'
p1507
aS'it services'
p1508
aS'dhcp'
p1509
aS'pda'
p1510
aS'ccd'
p1511
aS'model'
p1512
aS'modem'
p1513
aS'assembly language'
p1514
aS'online service'
p1515
aS'nosql'
p1516
aS'android os'
p1517
aS'leadership skills'
p1518
aS'xen'
p1519
aS'rest'
p1520
aS'database developer'
p1521
aS'server room'
p1522
aS'tcl'
p1523
aS'stored'
p1524
aS'enterprise'
p1525
aS'change management'
p1526
aS'web'
p1527
aS'mosfet'
p1528
aS'samba'
p1529
aS'autocad'
p1530
aS'desktop'
p1531
aS'blog'
p1532
aS'cc'
p1533
aS'network administration'
p1534
aS'codec'
p1535
aS'dqa'
p1536
aS'ada'
p1537
aS'gms'
p1538
aS'ado'
p1539
aS'adm'
p1540
aS'smart'
p1541
aS'ami'
p1542
aS'data structure'
p1543
aS'saturation'
p1544
aS'nvr'
p1545
aS'content delivery network'
p1546
aS'ecr'
p1547
aS'windows server'
p1548
aS'amd'
p1549
aS'.net framework'
p1550
aS'office suite'
p1551
aS'sccm'
p1552
aS'dbase'
p1553
aS'virtualization software'
p1554
aS'call center'
p1555
aS'credentials'
p1556
aS'file server'
p1557
aS'xss'
p1558
aS'wbs'
p1559
aS'vmware esx'
p1560
aS'programmable logic controller'
p1561
aS'dvb'
p1562
aS'blackberry'
p1563
aS'pipelining'
p1564
aS'fiber optic'
p1565
aS'passionate'
p1566
aS'page'
p1567
aS'storage server'
p1568
aS'cisco'
p1569
aS'rpg'
p1570
aS'zigbee'
p1571
aS'twitter'
p1572
aS'library'
p1573
aS'gpib'
p1574
aS'loop'
p1575
aS'home'
p1576
aS'uefi'
p1577
aS'tms'
p1578
aS'random testing'
p1579
aS'overlay'
p1580
aS'ddr'
p1581
aS'redis'
p1582
aS'legal'
p1583
aS'ddk'
p1584
aS'augmented reality'
p1585
aS'esb'
p1586
aS'provides'
p1587
aS'ddl'
p1588
aS'ott'
p1589
aS'nfs'
p1590
aS'programming language'
p1591
aS'scrum'
p1592
aS'nms'
p1593
aS'tdd'
p1594
aS'maven'
p1595
aS'bar code'
p1596
aS'leadership'
p1597
aS'flow chart'
p1598
aS'new product development'
p1599
aS'software engineering'
p1600
aS'vb net'
p1601
aS'ok'
p1602
aS'socket'
p1603
aS'ace'
p1604
aS'package'
p1605
aS'oa'
p1606
aS'spss'
p1607
aS'home networking'
p1608
aS'database server'
p1609
aS'carrier'
p1610
aS'dfx'
p1611
aS'access layer'
p1612
aS'act'
p1613
aS'project plan'
p1614
aS'nds'
p1615
aS'ot'
p1616
aS'backup'
p1617
aS'processor'
p1618
aS'op'
p1619
aS'outlook'
p1620
aS'netapp storage'
p1621
aS'browser compatibility'
p1622
aS'enterprise application'
p1623
aS'orm'
p1624
aS'trouble ticket'
p1625
aS'operator'
p1626
aS'vp'
p1627
aS'range'
p1628
aS'igmp'
p1629
aS'log shipping'
p1630
aS'w3c'
p1631
aS'ehr'
p1632
aS'ad hoc testing'
p1633
aS'snmp'
p1634
aS'json'
p1635
aS'owasp'
p1636
aS'los'
p1637
aS'core network'
p1638
aS'ipv4'
p1639
aS'ipv6'
p1640
aS'mpls vpn'
p1641
aS'vas'
p1642
aS'server virtualization'
p1643
aS'artificial intelligence'
p1644
aS'eai'
p1645
aS'repeater'
p1646
aS'bounce rate'
p1647
aS'hr'
p1648
aS'bus'
p1649
aS'ibm pc'
p1650
aS'lnternet'
p1651
aS'application program'
p1652
aS'volume'
p1653
aS'hi'
p1654
aS'gain'
p1655
aS'oauth'
p1656
aS'methodologies'
p1657
aS'bluetooth'
p1658
aS'spice'
p1659
aS'dma'
p1660
aS'fragmentation'
p1661
aS'waste'
p1662
aS'illustrator'
p1663
aS'wafer'
p1664
aS'embedded'
p1665
aS'dml'
p1666
aS'hosting'
p1667
aS'byoc'
p1668
aS'meta'
p1669
aS'byod'
p1670
aS'chipset'
p1671
aS'tiptop'
p1672
aS'line in'
p1673
aS'ac'
p1674
aS'adas'
p1675
aS'pc game'
p1676
aS'scanner'
p1677
aS'pin'
p1678
aS'af'
p1679
aS'ai'
p1680
aS'sqoop'
p1681
aS'am'
p1682
aS'nagios'
p1683
aS'aq'
p1684
aS'objective-c'
p1685
aS'ar'
p1686
aS'file'
p1687
aS'adsl'
p1688
aS'wwan'
p1689
aS'digital signal processing'
p1690
aS'cmos'
p1691
aS'hld'
p1692
aS'application software'
p1693
aS'antenna'
p1694
aS'calibration'
p1695
aS'drivers'
p1696
aS'event'
p1697
aS'field'
p1698
aS'hpc'
p1699
aS'network video recorder'
p1700
aS'riak'
p1701
aS'openid'
p1702
aS'amoled'
p1703
aS'connected devices'
p1704
aS'a+'
p1705
aS'includes'
p1706
aS'ansi'
p1707
aS'web browser'
p1708
aS'dropbox'
p1709
aS'ghost'
p1710
aS'cpl'
p1711
aS'sass'
p1712
aS'command line'
p1713
aS'silicon valley'
p1714
aS'cpc'
p1715
aS'cpe'
p1716
aS'c++.net'
p1717
aS'interaction design'
p1718
aS'product manager'
p1719
aS'storage management'
p1720
aS'validation'
p1721
aS'resolution'
p1722
aS'cpu'
p1723
aS'hmi'
p1724
atRp1725
.