c__builtin__
set
p1
((lp2
S'app'
p3
aS'linux'
p4
aS'zzw3'
p5
aS'mysql'
p6
aS'xml'
p7
aS'java'
p8
aS'asp.net'
p9
aS'c#.net'
p10
aS'python'
p11
aS'html'
p12
aS'android'
p13
aS'css'
p14
aS'asp'
p15
aS'c#'
p16
aS'javascript'
p17
aS'ios'
p18
aS'ajax'
p19
aS'jsp'
p20
aS'sql'
p21
aS'php'
p22
aS'jquery'
p23
aS'c'
aS'java script'
p24
aS'.net'
p25
aS'c++'
p26
aS'visual basic'
p27
atRp28
.