c__builtin__
set
p1
((lp2
S'scm'
p3
aS'busybox'
p4
aS'bapi'
p5
aS'scc'
p6
aS'smr'
p7
aS'umts'
p8
aS'mp4'
p9
aS'bytecode'
p10
aS'system design'
p11
aS'user experience design'
p12
aS'ptt'
p13
aS'integrity'
p14
aS'scp'
p15
aS'content management'
p16
aS'scr'
p17
aS'rd'
p18
aS'security manager'
p19
aS'wms'
p20
aS'directory services'
p21
aS'apple push notification service'
p22
aS'rtos'
p23
aS'dsl'
p24
aS'c6'
p25
aS'tn'
p26
aS'matlab'
p27
aS'spec'
p28
aS'ta'
p29
aS'application integration'
p30
aS'code review'
p31
aS'software quality assurance'
p32
aS'faq'
p33
aS'computer networking'
p34
aS'risc'
p35
aS'mpi'
p36
aS'replication'
p37
aS'wimax'
p38
aS'mps'
p39
aS'network server'
p40
aS'an application'
p41
aS'edm'
p42
aS'servlet'
p43
aS'tagging'
p44
aS'android tablet'
p45
aS'unity3d'
p46
aS'cable'
p47
aS'cmc'
p48
aS'upload'
p49
aS'smb'
p50
aS'vector'
p51
aS'delegate'
p52
aS'it consultant'
p53
aS'gc'
p54
aS'vpn server'
p55
aS'cms'
p56
aS'ups'
p57
aS'mp3'
p58
aS'secure http'
p59
aS'webdav'
p60
aS'netbeans'
p61
aS'network connectivity'
p62
aS'vb .net'
p63
aS'vbscript'
p64
aS'batch'
p65
aS'systems analysis'
p66
aS'zero'
p67
aS'street'
p68
aS'virtualization'
p69
aS'network infrastructure'
p70
aS'gm'
p71
aS'mpeg'
p72
aS'enterprise server'
p73
aS'cloud services'
p74
aS'asic'
p75
aS'nand'
p76
aS'decoding'
p77
aS'mainframe'
p78
aS'mcitp'
p79
aS'microchip'
p80
aS'ner'
p81
aS'method'
p82
aS'dashboard'
p83
aS'software development life cycle'
p84
aS'hash'
p85
aS'server colocation'
p86
aS'test script'
p87
aS'machine vision'
p88
aS'tcl tk'
p89
aS'component'
p90
aS'answers'
p91
aS'codebase'
p92
aS'modular'
p93
aS'provisioning'
p94
aS'b2c'
p95
aS'b2b'
p96
aS'information technology'
p97
aS'application security'
p98
aS'vulnerability'
p99
aS'wdm'
p100
aS'sla'
p101
aS'function key'
p102
aS'wds'
p103
aS'drm'
p104
aS'advertising'
p105
aS'network monitoring'
p106
aS'computer architecture'
p107
aS'search engine optimization'
p108
aS'jailbreak'
p109
aS'unix'
p110
aS'vc'
p111
aS'ha storage'
p112
aS'appliances'
p113
aS'service desk'
p114
aS'mobile advertising'
p115
aS'device driver'
p116
aS'landscape'
p117
aS'management software'
p118
aS'foxpro'
p119
aS'instant message'
p120
aS'technology services'
p121
aS'rhel'
p122
aS'vi'
p123
aS'hardware troubleshooting'
p124
aS'project planning'
p125
aS'authorization'
p126
aS'memory bus'
p127
aS'jmx'
p128
aS'relay'
p129
aS'jms'
p130
aS'yahoo'
p131
aS'jpg'
p132
aS'vpc'
p133
aS'webmaster'
p134
aS'network administrator'
p135
aS'md'
p136
aS'mb'
p137
aS'database security'
p138
aS'junit'
p139
aS'erd'
p140
aS'mv'
p141
aS'san security'
p142
aS'mp'
p143
aS'transparency'
p144
aS'visual basic'
p145
aS'root'
p146
aS'scripting'
p147
aS'atm'
p148
aS'skype'
p149
aS'smtp'
p150
aS'uat'
p151
aS'software development process'
p152
aS'apache tomcat'
p153
aS'scheduling'
p154
aS'service provider'
p155
aS'csd'
p156
aS'csa'
p157
aS'solaris'
p158
aS'csb'
p159
aS'sata'
p160
aS'c sharp'
p161
aS'actionscript'
p162
aS'c#.net1.'
p163
aS'record'
p164
aS'csv'
p165
aS'product release'
p166
aS'css'
p167
aS'csr'
p168
aS'fp'
p169
aS'gaming'
p170
aS'mpm'
p171
aS'modulation'
p172
aS'service levels'
p173
aS'lag'
p174
aS'storage capacity'
p175
aS'fb'
p176
aS'fc'
p177
aS'cognos'
p178
aS'parallel'
p179
aS'workstation'
p180
aS'business systems analyst'
p181
aS'pv'
p182
aS'wins'
p183
aS'bootstrap'
p184
aS'spring framework'
p185
aS'django'
p186
aS'domain name'
p187
aS'scsi'
p188
aS'industrial software'
p189
aS'storage device'
p190
aS'data aggregation'
p191
aS'vfp'
p192
aS'network security'
p193
aS'feedback'
p194
aS'xmpp'
p195
aS'jpeg'
p196
aS'pascal'
p197
aS'concurrency'
p198
aS'system configuration'
p199
aS'serdes'
p200
aS'enterprise class'
p201
aS'pcs'
p202
aS'fix'
p203
aS'unity'
p204
aS'edge'
p205
aS'computer system'
p206
aS'ims'
p207
aS'glassfish'
p208
aS'fraud detection'
p209
aS'mobile device'
p210
aS'java object'
p211
aS'rtsp'
p212
aS'software framework'
p213
aS'security architecture'
p214
aS'safe'
p215
aS'ceh'
p216
aS'refactoring'
p217
aS'communities'
p218
aS'ip camera'
p219
aS'parallel processing'
p220
aS'odbc'
p221
aS'intelligent platform management interface'
p222
aS'mcsd'
p223
aS'token'
p224
aS'web development'
p225
aS'continuous delivery'
p226
aS'mobile payment'
p227
aS'hadoop ecosystem'
p228
aS'gprs'
p229
aS'accelerator'
p230
aS'mdm'
p231
aS'core switch'
p232
aS'knowledge management'
p233
aS'idea'
p234
aS'mapreduce'
p235
aS'array'
p236
aS'time to market'
p237
aS'catia'
p238
aS'ha'
p239
aS'smt'
p240
aS'sms'
p241
aS'dss'
p242
aS'dsp'
p243
aS'semiconductor'
p244
aS'race'
p245
aS'ra'
p246
aS'sdlc'
p247
aS'distributed system'
p248
aS'rm'
p249
aS'offline'
p250
aS'smd'
p251
aS'dsc'
p252
aS'ado.net'
p253
aS'disk'
p254
aS'network design'
p255
aS'management information system'
p256
aS'localization'
p257
aS'ntp'
p258
aS'data scientist'
p259
aS'free'
p260
aS'revision control'
p261
aS'asa'
p262
aS'cookie'
p263
aS'model view controller'
p264
aS'visual foxpro'
p265
aS'estimate'
p266
aS'gameplay'
p267
aS'bash'
p268
aS'network performance'
p269
aS'ate'
p270
aS'thread'
p271
aS'ata'
p272
aS'drupal'
p273
aS'atl'
p274
aS'isp'
p275
aS'silicon'
p276
aS'mvc'
p277
aS'iso'
p278
aS'isn'
p279
aS'circuit'
p280
aS'unit test'
p281
aS'cdma'
p282
aS'microsoft azure'
p283
aS'benchmarking'
p284
aS'windows ce'
p285
aS'system programming'
p286
aS'google play'
p287
aS'dfs'
p288
aS'photoimpact'
p289
aS'production environment'
p290
aS'encryption algorithm'
p291
aS'wpf'
p292
aS'gpo'
p293
aS'vhdl'
p294
aS'tor'
p295
aS'tos'
p296
aS'struts'
p297
aS'wireshark'
p298
aS'rails'
p299
aS'domain controller'
p300
aS'gpu'
p301
aS'thin client'
p302
aS'system requirements'
p303
aS'gps'
p304
aS'text mining'
p305
aS'it strategy'
p306
aS'relationship'
p307
aS'rup'
p308
aS'microsoft windows'
p309
aS'raid controller'
p310
aS'apache spark'
p311
aS'windows embedded'
p312
aS'transaction'
p313
aS'jquery'
p314
aS'regular expression'
p315
aS'cable modem'
p316
aS'data collection'
p317
aS'aaa'
p318
aS'software life cycle'
p319
aS'evdo'
p320
aS'stl'
p321
aS'solution architecture'
p322
aS'final'
p323
aS'development environment'
p324
aS'embedded system'
p325
aS'continuous integration'
p326
aS'enhancement'
p327
aS'bridge'
p328
aS'lbs'
p329
aS'systems analyst'
p330
aS'massively parallel processing'
p331
aS'rac'
p332
aS'ran'
p333
aS'spectrum'
p334
aS'business intelligence'
p335
aS'system integration'
p336
aS'angularjs'
p337
aS'amazon web services'
p338
aS'always on'
p339
aS'same time'
p340
aS'latency'
p341
aS'lib'
p342
aS'user experience'
p343
aS'software architecture'
p344
aS'pmi'
p345
aS'command'
p346
aS'wireless network'
p347
aS'rich media'
p348
aS'resource allocation'
p349
aS'server os'
p350
aS'memory'
p351
aS'rtd'
p352
aS'index'
p353
aS'service level agreement'
p354
aS'data warehouse'
p355
aS'architects'
p356
aS'bsm'
p357
aS'virus'
p358
aS'jsp'
p359
aS'moss'
p360
aS'scripts'
p361
aS'bsd'
p362
aS'data architect'
p363
aS'bsc'
p364
aS'consumer electronics'
p365
aS'dom'
p366
aS'tpm'
p367
aS'partition'
p368
aS'km'
p369
aS'microsoft project'
p370
aS'tps'
p371
aS'search engine'
p372
aS'caching'
p373
aS'baseband'
p374
aS'virtual machine'
p375
aS'hyper'
p376
aS'rtc'
p377
aS'xdsl'
p378
aS'vulnerability assessment'
p379
aS'rtp'
p380
aS'tft'
p381
aS'internet security'
p382
aS'android app'
p383
aS'availability'
p384
aS'docsis'
p385
aS'itil'
p386
aS'virtual server'
p387
aS'big data'
p388
aS'console'
p389
aS'dwdm'
p390
aS'ldap'
p391
aS'ocp'
p392
aS'mobile network'
p393
aS'dm'
p394
aS'microprocessor'
p395
aS'cryptography'
p396
aS'ad domain'
p397
aS'android market'
p398
aS'de'
p399
aS'dc'
p400
aS'da'
p401
aS'next'
p402
aS'amazon'
p403
aS'synchronization'
p404
aS'downtime'
p405
aS'dv'
p406
aS'dw'
p407
aS'netflow'
p408
aS'dr'
p409
aS'compiler'
p410
aS'rfp'
p411
aS'bar'
p412
aS'stb'
p413
aS'ietf'
p414
aS'emi'
p415
aS'public'
p416
aS'rfc'
p417
aS'zabbix'
p418
aS'ems'
p419
aS'object oriented programming'
p420
aS'rfi'
p421
aS'embedded device'
p422
aS'high availability'
p423
aS'crm'
p424
aS'arp'
p425
aS'set'
p426
aS'active directory'
p427
aS'motherboard'
p428
aS'peripheral'
p429
aS'startup'
p430
aS'sku'
p431
aS'radius'
p432
aS'seo'
p433
aS'web designer'
p434
aS'microcode'
p435
aS'foss'
p436
aS'application server'
p437
aS'techniques'
p438
aS'capacity'
p439
aS'hdmi'
p440
aS'delphi'
p441
aS'mobile games'
p442
aS'router firmware'
p443
aS'web developer'
p444
aS'mmc'
p445
aS'vendor management'
p446
aS'contact us'
p447
aS'ad hoc'
p448
aS'dedicated server'
p449
aS'wf'
p450
aS'server software'
p451
aS'creating'
p452
aS'xslt'
p453
aS'javascript'
p454
aS'it infrastructure'
p455
aS'scalability'
p456
aS'oms'
p457
aS'html5'
p458
aS'wp'
p459
aS'interface'
p460
aS'j2se'
p461
aS'user exit'
p462
aS'inter process communication'
p463
aS'topology'
p464
aS'j2ee'
p465
aS'license'
p466
aS'web client'
p467
aS'dalvik'
p468
aS'load testing'
p469
aS'pdm'
p470
aS'customer support'
p471
aS'context'
p472
aS'integrated software'
p473
aS'pdf'
p474
aS'tftp'
p475
aS'audio codec'
p476
aS'com'
p477
aS'data integration'
p478
aS'con'
p479
aS'switching'
p480
aS'geolocation'
p481
aS'data mart'
p482
aS'simple'
p483
aS'distributed computing'
p484
aS'community'
p485
aS'loader'
p486
aS'lambda architecture'
p487
aS'c shell'
p488
aS'data access'
p489
aS'linux'
p490
aS'proof of concept'
p491
aS'panel'
p492
aS'backend'
p493
aS'recommendation engine'
p494
aS'java'
p495
aS'pw'
p496
aS'sem'
p497
aS'basis'
p498
aS'infotainment'
p499
aS'deep learning'
p500
aS'virtual reality'
p501
aS'patch'
p502
aS'extraction'
p503
aS'tutorials'
p504
aS'pi'
p505
aS'adc'
p506
aS'rich client'
p507
aS'information management system'
p508
aS'data warehouse architect'
p509
aS'great'
p510
aS'web hosting'
p511
aS'maps'
p512
aS'pxe'
p513
aS'wintel'
p514
aS'feasibility study'
p515
aS'mcu'
p516
aS'mct'
p517
aS'end user'
p518
aS'mcp'
p519
aS'iterative development'
p520
aS'gnu'
p521
aS'radio frequency'
p522
aS'whql'
p523
aS'cts'
p524
aS'mpls'
p525
aS'hacking'
p526
aS'air'
p527
aS'aim'
p528
aS'aio'
p529
aS'optimization'
p530
aS'hypervisor'
p531
aS'product management'
p532
aS'dms'
p533
aS'anchor'
p534
aS'vod'
p535
aS'compliance'
p536
aS'ir'
p537
aS'rip'
p538
aS'image sensor'
p539
aS'database administration'
p540
aS'network management'
p541
aS'im'
p542
aS'il'
p543
aS'ia'
p544
aS'ic'
p545
aS'ie'
p546
aS'id'
p547
aS'lock screen'
p548
aS'ccnp'
p549
aS'baseline'
p550
aS'patent'
p551
aS'msql'
p552
aS'couchdb'
p553
aS'object storage'
p554
aS'hadoop'
p555
aS'knowledge management system'
p556
aS'quant'
p557
aS'ipmi'
p558
aS'modification'
p559
aS'internet of things'
p560
aS'mcse'
p561
aS'storage networking'
p562
aS'social platform'
p563
aS'stored procedure'
p564
aS'raid'
p565
aS'x86'
p566
aS'hana'
p567
aS'live support'
p568
aS'communication software'
p569
aS'portal'
p570
aS'mips'
p571
aS'hipaa'
p572
aS'stack'
p573
aS'task'
p574
aS'pattern recognition'
p575
aS'continuous improvement'
p576
aS'disk array'
p577
aS'ipsec vpn'
p578
aS'practices'
p579
aS'program manager'
p580
aS'consistency'
p581
aS'docker'
p582
aS'i2c'
p583
aS'gsm'
p584
aS'help desk'
p585
aS'sap hana'
p586
aS'mom'
p587
aS'laptop'
p588
aS'networks'
p589
aS'mid'
p590
aS'mysql'
p591
aS'best practice'
p592
aS'visualization'
p593
aS'hal'
p594
aS'tablet'
p595
aS'elb'
p596
aS'agile'
p597
aS'scalable'
p598
aS'kinect'
p599
aS'fortran'
p600
aS'vswitch'
p601
aS'network protocols'
p602
aS'video on demand'
p603
aS'foundation framework'
p604
aS'vendor'
p605
aS'design thinking'
p606
aS'microcontroller'
p607
aS'web office'
p608
aS'lcd'
p609
aS'private'
p610
aS'video compression'
p611
aS'opc'
p612
aS'bit'
p613
aS'designers'
p614
aS'social networking'
p615
aS'ipsec'
p616
aS'vcm'
p617
aS'activex'
p618
aS'semi'
p619
aS'signal'
p620
aS'bpm'
p621
aS'xbox'
p622
aS'web content management'
p623
aS'online marketing'
p624
aS'bpr'
p625
aS'android platform'
p626
aS'project management software'
p627
aS'system management'
p628
aS'xaml'
p629
aS'linux kernel'
p630
aS'prototyping'
p631
aS'functional reactive programming'
p632
aS'system administrator'
p633
aS'distributed development'
p634
aS'communications'
p635
aS'broadband'
p636
aS'data migration'
p637
aS'saas'
p638
aS'ice'
p639
aS'gateway'
p640
aS'power user'
p641
aS'cnc'
p642
aS'uml'
p643
aS'hcm'
p644
aS'ict'
p645
aS'bd'
p646
aS'teradata'
p647
aS'ba'
p648
aS'sfc'
p649
aS'barcode'
p650
aS'vdi'
p651
aS'bw'
p652
aS'content management system'
p653
aS'oem'
p654
aS'output'
p655
aS'post'
p656
aS'mssql'
p657
aS'pipeline'
p658
aS'postgresql'
p659
aS'uart'
p660
aS'private cloud'
p661
aS'ids'
p662
aS'simulation'
p663
aS'bgp'
p664
aS'user experience designer'
p665
aS'fcc'
p666
aS'xsl'
p667
aS'azure'
p668
aS'commit'
p669
aS'j2me'
p670
aS'ide'
p671
aS'microsoft office'
p672
aS'web programming'
p673
aS'ida'
p674
aS'soa'
p675
aS'soc'
p676
aS'garbage'
p677
aS'presence'
p678
aS'parsing'
p679
aS'contingency plan'
p680
aS'haskell'
p681
aS'ppt'
p682
aS'direct3d'
p683
aS'msp'
p684
aS'manual testing'
p685
aS'clustering'
p686
aS'jdbc'
p687
aS'gis'
p688
aS'spam'
p689
aS'waf'
p690
aS'demand forecasting'
p691
aS'pabx'
p692
aS'heroku'
p693
aS'wordpress'
p694
aS'forward'
p695
aS'tcpdump'
p696
aS'functional testing'
p697
aS'wap'
p698
aS'responsive web design'
p699
aS'business process analysis'
p700
aS'webcam'
p701
aS'paypal'
p702
aS'linq'
p703
aS'heap'
p704
aS'sdn'
p705
aS'pwm'
p706
aS'static timing analysis'
p707
aS'fda'
p708
aS'csslp'
p709
aS'ux'
p710
aS'network layer'
p711
aS'network software'
p712
aS'middleware'
p713
aS'jboss'
p714
aS'cross platform'
p715
aS'data architecture'
p716
aS'ul'
p717
aS'ui'
p718
aS'capacity planning'
p719
aS'in sap'
p720
aS'ug'
p721
aS'citrix xenserver'
p722
aS'uc'
p723
aS'constant'
p724
aS'classic'
p725
aS'parser'
p726
aS'accessibility'
p727
aS'proven'
p728
aS'ddos'
p729
aS'chat'
p730
aS'organizational'
p731
aS'accounting'
p732
aS'network architecture'
p733
aS'acl'
p734
aS'ni'
p735
aS'application performance'
p736
aS'web design'
p737
aS'nc'
p738
aS'cics'
p739
aS'windows forms'
p740
aS'nat'
p741
aS'jenkins'
p742
aS'best practices'
p743
aS'load balancing router'
p744
aS'nice'
p745
aS'mongodb'
p746
aS'mcdba'
p747
aS'kvm'
p748
aS'update'
p749
aS'build tool'
p750
aS'system time'
p751
aS'sql'
p752
aS'variable'
p753
aS'ess'
p754
aS'sqa'
p755
aS'bot'
p756
aS'help desk management'
p757
aS'independently'
p758
aS'disaster recovery'
p759
aS'dvi'
p760
aS'cloud computing'
p761
aS'scala'
p762
aS'youtube'
p763
aS'tomcat'
p764
aS'unit testing'
p765
aS'internet desktop'
p766
aS'oltp'
p767
aS'memory card'
p768
aS'n1'
p769
aS'sniffer'
p770
aS'fabless'
p771
aS'session initiation protocol'
p772
aS'edc'
p773
aS'eda'
p774
aS'rom'
p775
aS'process management'
p776
aS'nlp'
p777
aS'lean'
p778
aS'oss'
p779
aS'edi'
p780
aS'wordperfect'
p781
aS'resistance'
p782
aS'osi'
p783
aS'mobile web'
p784
aS'solution stack'
p785
aS'informix'
p786
aS'application firewall'
p787
aS'xen hypervisor'
p788
aS'query'
p789
aS'ror'
p790
aS'gl'
p791
aS'ux designer'
p792
aS'email server'
p793
aS'quality assurance'
p794
aS'jvm'
p795
aS'giga'
p796
aS'cdn'
p797
aS'smartphone'
p798
aS'string'
p799
aS'wcdma'
p800
aS'cocoa touch'
p801
aS'information security'
p802
aS'ccsp'
p803
aS'vpn firewall'
p804
aS'cellular'
p805
aS'join'
p806
aS'fan'
p807
aS'web form'
p808
aS'windows client'
p809
aS'transmission'
p810
aS'scripting language'
p811
aS'gui'
p812
aS'michael'
p813
aS'ruby on rails'
p814
aS'hive'
p815
aS'olap'
p816
aS'session'
p817
aS'diy'
p818
aS'asp'
p819
aS'hybrid cloud'
p820
aS'rack'
p821
aS'cgi'
p822
aS'design pattern'
p823
aS'pms'
p824
aS'cfd'
p825
aS'noise'
p826
aS'odm'
p827
aS'pmc'
p828
aS'pmo'
p829
aS'rrs'
p830
aS'port'
p831
aS'vmware'
p832
aS'windows nt'
p833
aS'problem management'
p834
aS'hdfs'
p835
aS'bdc'
p836
aS'video conferencing'
p837
aS'multimedia'
p838
aS'smart card'
p839
aS'blade server'
p840
aS'cell'
p841
aS'winrt'
p842
aS'template'
p843
aS'sdp'
p844
aS'relational'
p845
aS'isapi'
p846
aS'scada'
p847
aS'performant'
p848
aS'bo'
p849
aS'led'
p850
aS'instant messaging'
p851
aS'microelectronics'
p852
aS'commercial'
p853
aS'velocity'
p854
aS'ecc'
p855
aS'ubuntu'
p856
aS'mobile app'
p857
aS'it asset management'
p858
aS'nids'
p859
aS'rfid reader'
p860
aS'rdp'
p861
aS'rds'
p862
aS'bu'
p863
aS'vb.net'
p864
aS'boot loader'
p865
aS'patch management'
p866
aS'hba'
p867
aS'host'
p868
aS'test automation'
p869
aS'software testing'
p870
aS'queue'
p871
aS'document management'
p872
aS'throughput'
p873
aS'bom'
p874
aS'rdc'
p875
aS'rdb'
p876
aS'modbus'
p877
aS'web page'
p878
aS'cti'
p879
aS'relation'
p880
aS'macintosh'
p881
aS'ipc'
p882
aS'physical security'
p883
aS'ip network'
p884
aS'firefox'
p885
aS'aps'
p886
aS'app'
p887
aS'bs'
p888
aS'sqlite'
p889
aS'test driven development'
p890
aS'dram'
p891
aS'backup and recovery'
p892
aS'battery'
p893
aS'it governance'
p894
aS'social media'
p895
aS'fed'
p896
aS'computer network'
p897
aS'mss'
p898
aS'perl'
p899
aS'embedded linux'
p900
aS'netbios'
p901
aS'msc'
p902
aS'business logic'
p903
aS'data management'
p904
aS'ood'
p905
aS'class diagram'
p906
aS'performance management'
p907
aS'conductor'
p908
aS'video streaming'
p909
aS'benchmark'
p910
aS'visual j#'
p911
aS'business process'
p912
aS'iic'
p913
aS'release plan'
p914
aS'erp system'
p915
aS'account'
p916
aS'data source'
p917
aS'dhtml'
p918
aS'cas'
p919
aS'car'
p920
aS'functional programming'
p921
aS'clients'
p922
aS'machine learning'
p923
aS'reverse engineering'
p924
aS'wallet'
p925
aS'tag'
p926
aS'cam'
p927
aS'cal'
p928
aS'agile software development'
p929
aS'cisa'
p930
aS'linux pc'
p931
aS'protocol stack'
p932
aS'tap'
p933
aS'parallel computing'
p934
aS'lock'
p935
aS'chip'
p936
aS'controller'
p937
aS'vc++'
p938
aS'agent'
p939
aS'data model'
p940
aS'web content'
p941
aS'his'
p942
aS'spc'
p943
aS'vpn router'
p944
aS'native'
p945
aS'sip'
p946
aS'sit'
p947
aS'handover'
p948
aS'joomla'
p949
aS'c#.net'
p950
aS'android device'
p951
aS'raspberry pi'
p952
aS'lotus notes'
p953
aS'xhtml'
p954
aS'lotus domino'
p955
aS'sim'
p956
aS'asml'
p957
aS'sd card'
p958
aS'cloud app'
p959
aS'npi'
p960
aS'clone'
p961
aS'collection'
p962
aS'java ee'
p963
aS'notebook'
p964
aS'it management'
p965
aS'sns'
p966
aS'communication protocol'
p967
aS'aop'
p968
aS'tier'
p969
aS'nps'
p970
aS'man'
p971
aS'paas'
p972
aS'cod'
p973
aS'object relational mapping'
p974
aS'ospf'
p975
aS'sp'
p976
aS'gamma'
p977
aS'acts'
p978
aS'iptv'
p979
aS'entity'
p980
aS'quality control'
p981
aS'statistical'
p982
aS'cold'
p983
aS'application architecture'
p984
aS'ieee'
p985
aS'vms'
p986
aS'directx'
p987
aS'volte'
p988
aS'enterprise storage'
p989
aS'gtc'
p990
aS'arduino'
p991
aS'banner'
p992
aS'lamp'
p993
aS'li'
p994
aS'forms'
p995
aS'window'
p996
aS'cto'
p997
aS'conformance'
p998
aS'decryption'
p999
aS'dac'
p1000
aS'python'
p1001
aS'mfc'
p1002
aS'indexing'
p1003
aS'hybrid cloud storage'
p1004
aS'noc'
p1005
aS'user interface design'
p1006
aS'dns server'
p1007
aS'safari'
p1008
aS'power management'
p1009
aS'articles'
p1010
aS'term'
p1011
aS'workload'
p1012
aS'nfc'
p1013
aS'system software'
p1014
aS'.net'
p1015
aS'win32'
p1016
aS'merge'
p1017
aS'user interface'
p1018
aS'l2'
p1019
aS'mode'
p1020
aS'l1'
p1021
aS'kpi'
p1022
aS'identifier'
p1023
aS'enterprise software'
p1024
aS'oracle database'
p1025
aS'mobile phone'
p1026
aS'ed'
p1027
aS'eg'
p1028
aS'ea'
p1029
aS'hlr'
p1030
aS'ec'
p1031
aS'eb'
p1032
aS'san switch'
p1033
aS'frequency'
p1034
aS'static'
p1035
aS'citrix'
p1036
aS'hspa+'
p1037
aS'eq'
p1038
aS'project manager'
p1039
aS'hacker'
p1040
aS'container'
p1041
aS'openflow'
p1042
aS'return on investment'
p1043
aS'computer engineering'
p1044
aS'ejb'
p1045
aS'configuration management'
p1046
aS'android sdk'
p1047
aS'rel'
p1048
aS'ble'
p1049
aS'response time'
p1050
aS'visual studio .net'
p1051
aS'real time'
p1052
aS'product introduction'
p1053
aS'hibernate'
p1054
aS'embedded software'
p1055
aS'subject matter expert'
p1056
aS'cissp'
p1057
aS'data quality'
p1058
aS'ajax'
p1059
aS'git'
p1060
aS'emulation'
p1061
aS'regulatory'
p1062
aS'linux server'
p1063
aS'partner'
p1064
aS'visual basic .net'
p1065
aS'midi'
p1066
aS'standby'
p1067
aS'adapters'
p1068
aS'messaging'
p1069
aS'programming'
p1070
aS'int'
p1071
aS'dpi'
p1072
aS'data security'
p1073
aS'security software'
p1074
aS'information architecture'
p1075
aS'eeprom'
p1076
aS'lambda'
p1077
aS'data integrity'
p1078
aS'wlan'
p1079
aS'release management'
p1080
aS'revenue'
p1081
aS'software configuration management'
p1082
aS'dcom'
p1083
aS'cmmi'
p1084
aS'human capital management'
p1085
aS'bdd'
p1086
aS'software licensing'
p1087
aS'accountability'
p1088
aS'adobe flash'
p1089
aS'data storage'
p1090
aS'vsts'
p1091
aS'ian'
p1092
aS'ofdm'
p1093
aS'workaround'
p1094
aS'sgsn'
p1095
aS'fms'
p1096
aS'fm'
p1097
aS'attack'
p1098
aS'zend framework'
p1099
aS'load balancer'
p1100
aS'asset tracking'
p1101
aS'iaas'
p1102
aS'iap'
p1103
aS'mining'
p1104
aS'shell'
p1105
aS'hub'
p1106
aS'software program'
p1107
aS'sequence diagram'
p1108
aS'rsa'
p1109
aS'mobile application'
p1110
aS'cloud os'
p1111
aS'module'
p1112
aS'mems'
p1113
aS'web application firewall'
p1114
aS'public cloud'
p1115
aS'isolation'
p1116
aS'mbps'
p1117
aS'ssl vpn'
p1118
aS'garbage collection'
p1119
aS'r'
aS'software architect'
p1120
aS'enterprise network'
p1121
aS'database design'
p1122
aS'open vswitch'
p1123
aS'bts'
p1124
aS'browser'
p1125
aS'windows service'
p1126
aS'storage management software'
p1127
aS'app store'
p1128
aS'application framework'
p1129
aS'partnership'
p1130
aS'sar'
p1131
aS'knowledge base'
p1132
aS'integration testing'
p1133
aS'wcs'
p1134
aS'sdr'
p1135
aS'min'
p1136
aS'asp.net'
p1137
aS'mic'
p1138
aS'lotusscript'
p1139
aS'analog'
p1140
aS'j#'
p1141
aS'wan accelerator'
p1142
aS'markup language'
p1143
aS'channel'
p1144
aS'buffer'
p1145
aS'collaboration'
p1146
aS'cdma2000'
p1147
aS'ftp server'
p1148
aS'beta'
p1149
aS'information system'
p1150
aS'web services software'
p1151
aS'terminal server'
p1152
aS'icon'
p1153
aS'native application'
p1154
aS'system testing'
p1155
aS'switch router'
p1156
aS'sql server'
p1157
aS'zfs'
p1158
aS'open data'
p1159
aS'microsoft word'
p1160
aS'mrp'
p1161
aS'level design'
p1162
aS'shell script'
p1163
aS'qos'
p1164
aS'ss7'
p1165
aS'visual c++'
p1166
aS'cloud infrastructure'
p1167
aS'spyware'
p1168
aS'information management'
p1169
aS'vcap'
p1170
aS'vmm'
p1171
aS'eap'
p1172
aS'product life cycle'
p1173
aS'network architect'
p1174
aS'dll'
p1175
aS'revision control system'
p1176
aS'ground'
p1177
aS'xml'
p1178
aS'partners'
p1179
aS'upgrade'
p1180
aS'ui design'
p1181
aS'sdh'
p1182
aS'cache'
p1183
aS'web scraping'
p1184
aS'terminal'
p1185
aS'tape'
p1186
aS'relational database'
p1187
aS'content provider'
p1188
aS'data modeling'
p1189
aS'operating system'
p1190
aS'personal computer'
p1191
aS'test plan'
p1192
aS'tft lcd'
p1193
aS'ssl'
p1194
aS'sso'
p1195
aS'interoperability'
p1196
aS'csrf'
p1197
aS'ssd'
p1198
aS'db2'
p1199
aS'geo'
p1200
aS'qs'
p1201
aS'ios sdk'
p1202
aS'qt'
p1203
aS'amazon ec2'
p1204
aS'c++'
p1205
aS'qc'
p1206
aS'acceptance test'
p1207
aS'content delivery'
p1208
aS'cloud testing'
p1209
aS'management information systems'
p1210
aS'enterprise service bus'
p1211
aS'mail server'
p1212
aS'edge switch'
p1213
aS'view'
p1214
aS'wiki'
p1215
aS'kernel'
p1216
aS'software maintenance'
p1217
aS'frame'
p1218
aS'windows mobile'
p1219
aS'packet'
p1220
aS'dect'
p1221
aS'rma'
p1222
aS'system administration'
p1223
aS'audio streaming'
p1224
aS'rmi'
p1225
aS'manufacturer'
p1226
aS'lean startup'
p1227
aS'cis'
p1228
aS'labview'
p1229
aS'outsourcing'
p1230
aS'its'
p1231
aS'lua'
p1232
aS'state'
p1233
aS'dlp'
p1234
aS'verilog'
p1235
aS'product life cycle management'
p1236
aS'source code'
p1237
aS'utm'
p1238
aS'websphere'
p1239
aS'struts framework'
p1240
aS'trojan horse'
p1241
aS'gnss'
p1242
aS'wcf'
p1243
aS'swift'
p1244
aS'distribution'
p1245
aS'tls'
p1246
aS'sap business suite'
p1247
aS'data visualization'
p1248
aS'implementing'
p1249
aS'java script'
p1250
aS'use case'
p1251
aS'aqua'
p1252
aS'powershell'
p1253
aS'netweaver'
p1254
aS'sql injection'
p1255
aS'expression'
p1256
aS'etl'
p1257
aS'ci'
p1258
aS'ucs'
p1259
aS'cm'
p1260
aS'vxworks'
p1261
aS'ca'
p1262
aS'vdsl'
p1263
aS'pop'
p1264
aS'cd'
p1265
aS'variety'
p1266
aS'bpcs'
p1267
aS'data mining'
p1268
aS'table'
p1269
aS'poc'
p1270
aS'scrum master'
p1271
aS'tuning'
p1272
aS'encryption'
p1273
aS'wpa2'
p1274
aS'vts'
p1275
aS'subscriber'
p1276
aS'mathematics'
p1277
aS'file system'
p1278
aS'pci'
p1279
aS'proxy server'
p1280
aS'enterprise instant messaging'
p1281
aS'process control'
p1282
aS'prototype'
p1283
aS'pic'
p1284
aS'rdbms'
p1285
aS'c#'
p1286
aS'secure coding'
p1287
aS'c'
aS'tcpip'
p1288
aS'pbx'
p1289
aS'bms'
p1290
aS'legacy'
p1291
aS'otp'
p1292
aS'bonjour'
p1293
aS'ruby'
p1294
aS'cloud storage'
p1295
aS'eip'
p1296
aS'laser'
p1297
aS'bpml'
p1298
aS'onboarding'
p1299
aS'network troubleshooting'
p1300
aS'cvs'
p1301
aS'cursor'
p1302
aS'hdd'
p1303
aS'lan switching'
p1304
aS'ilo'
p1305
aS'intranet'
p1306
aS'eim'
p1307
aS'va'
p1308
aS'layer'
p1309
aS'smart tv'
p1310
aS'iva'
p1311
aS'flex'
p1312
aS'demo'
p1313
aS'metric'
p1314
aS'squid'
p1315
aS'vm'
p1316
aS'linkedin'
p1317
aS'smart device'
p1318
aS'parse'
p1319
aS'telephony'
p1320
aS'vr'
p1321
aS'vs'
p1322
aS'cobol'
p1323
aS'ivr'
p1324
aS'lcd tv'
p1325
aS'file format'
p1326
aS'capture'
p1327
aS'uptime'
p1328
aS'pat'
p1329
aS'media'
p1330
aS'iscsi'
p1331
aS'connection'
p1332
aS'authentication'
p1333
aS'html'
p1334
aS'pad'
p1335
aS'work flow'
p1336
aS'android'
p1337
aS'pal'
p1338
aS'pam'
p1339
aS'root cause analysis'
p1340
aS'thunderbolt'
p1341
aS'rfid'
p1342
aS'ios'
p1343
aS'web server'
p1344
aS'automation'
p1345
aS'c++ programming language'
p1346
aS'dcm'
p1347
aS'hsdpa'
p1348
aS'it operations'
p1349
aS'php'
p1350
aS'wpa'
p1351
aS'amqp'
p1352
aS'database administrator'
p1353
aS'macro'
p1354
aS'markup'
p1355
aS'igp'
p1356
aS'ccs'
p1357
aS'data center'
p1358
aS'it services'
p1359
aS'pda'
p1360
aS'ccd'
p1361
aS'model'
p1362
aS'modem'
p1363
aS'assembly language'
p1364
aS'online service'
p1365
aS'nosql'
p1366
aS'android os'
p1367
aS'leadership skills'
p1368
aS'xen'
p1369
aS'rest'
p1370
aS'database developer'
p1371
aS'server room'
p1372
aS'tcl'
p1373
aS'change management'
p1374
aS'mosfet'
p1375
aS'samba'
p1376
aS'desktop'
p1377
aS'blog'
p1378
aS'cc'
p1379
aS'network administration'
p1380
aS'codec'
p1381
aS'dqa'
p1382
aS'ada'
p1383
aS'gms'
p1384
aS'ado'
p1385
aS'adm'
p1386
aS'ami'
p1387
aS'data structure'
p1388
aS'saturation'
p1389
aS'nvr'
p1390
aS'content delivery network'
p1391
aS'ecr'
p1392
aS'amd'
p1393
aS'.net framework'
p1394
aS'office suite'
p1395
aS'sccm'
p1396
aS'dbase'
p1397
aS'virtualization software'
p1398
aS'call center'
p1399
aS'credentials'
p1400
aS'file server'
p1401
aS'xss'
p1402
aS'wbs'
p1403
aS'vmware esx'
p1404
aS'programmable logic controller'
p1405
aS'dvb'
p1406
aS'blackberry'
p1407
aS'pipelining'
p1408
aS'fiber optic'
p1409
aS'passionate'
p1410
aS'storage server'
p1411
aS'rpg'
p1412
aS'zigbee'
p1413
aS'twitter'
p1414
aS'library'
p1415
aS'gpib'
p1416
aS'loop'
p1417
aS'home'
p1418
aS'uefi'
p1419
aS'tms'
p1420
aS'random testing'
p1421
aS'overlay'
p1422
aS'ddr'
p1423
aS'redis'
p1424
aS'legal'
p1425
aS'ddk'
p1426
aS'augmented reality'
p1427
aS'esb'
p1428
aS'provides'
p1429
aS'ddl'
p1430
aS'ott'
p1431
aS'nfs'
p1432
aS'programming language'
p1433
aS'scrum'
p1434
aS'nms'
p1435
aS'tdd'
p1436
aS'maven'
p1437
aS'bar code'
p1438
aS'flow chart'
p1439
aS'new product development'
p1440
aS'software engineering'
p1441
aS'vb net'
p1442
aS'ok'
p1443
aS'ace'
p1444
aS'oa'
p1445
aS'spss'
p1446
aS'home networking'
p1447
aS'database server'
p1448
aS'carrier'
p1449
aS'dfx'
p1450
aS'access layer'
p1451
aS'act'
p1452
aS'project plan'
p1453
aS'nds'
p1454
aS'ot'
p1455
aS'processor'
p1456
aS'op'
p1457
aS'netapp storage'
p1458
aS'browser compatibility'
p1459
aS'enterprise application'
p1460
aS'orm'
p1461
aS'trouble ticket'
p1462
aS'operator'
p1463
aS'vp'
p1464
aS'range'
p1465
aS'igmp'
p1466
aS'log shipping'
p1467
aS'w3c'
p1468
aS'ehr'
p1469
aS'ad hoc testing'
p1470
aS'snmp'
p1471
aS'json'
p1472
aS'owasp'
p1473
aS'los'
p1474
aS'core network'
p1475
aS'ipv4'
p1476
aS'ipv6'
p1477
aS'mpls vpn'
p1478
aS'vas'
p1479
aS'server virtualization'
p1480
aS'artificial intelligence'
p1481
aS'eai'
p1482
aS'repeater'
p1483
aS'bounce rate'
p1484
aS'bus'
p1485
aS'ibm pc'
p1486
aS'application program'
p1487
aS'volume'
p1488
aS'hi'
p1489
aS'gain'
p1490
aS'oauth'
p1491
aS'methodologies'
p1492
aS'bluetooth'
p1493
aS'spice'
p1494
aS'dma'
p1495
aS'fragmentation'
p1496
aS'waste'
p1497
aS'wafer'
p1498
aS'embedded'
p1499
aS'dml'
p1500
aS'hosting'
p1501
aS'byoc'
p1502
aS'meta'
p1503
aS'byod'
p1504
aS'chipset'
p1505
aS'line in'
p1506
aS'ac'
p1507
aS'adas'
p1508
aS'pc game'
p1509
aS'scanner'
p1510
aS'pin'
p1511
aS'af'
p1512
aS'ai'
p1513
aS'sqoop'
p1514
aS'am'
p1515
aS'nagios'
p1516
aS'aq'
p1517
aS'objective-c'
p1518
aS'ar'
p1519
aS'file'
p1520
aS'adsl'
p1521
aS'wwan'
p1522
aS'digital signal processing'
p1523
aS'cmos'
p1524
aS'hld'
p1525
aS'application software'
p1526
aS'antenna'
p1527
aS'calibration'
p1528
aS'event'
p1529
aS'hpc'
p1530
aS'network video recorder'
p1531
aS'riak'
p1532
aS'openid'
p1533
aS'amoled'
p1534
aS'connected devices'
p1535
aS'a+'
p1536
aS'includes'
p1537
aS'ansi'
p1538
aS'web browser'
p1539
aS'dropbox'
p1540
aS'ghost'
p1541
aS'cpl'
p1542
aS'sass'
p1543
aS'command line'
p1544
aS'silicon valley'
p1545
aS'cpc'
p1546
aS'cpe'
p1547
aS'c++.net'
p1548
aS'interaction design'
p1549
aS'product manager'
p1550
aS'storage management'
p1551
aS'validation'
p1552
aS'resolution'
p1553
aS'hmi'
p1554
atRp1555
.