c__builtin__
set
p1
((lp2
S'photoshop'
p3
aS'mfc'
p4
aS'solaris'
p5
aS'nosql'
p6
aS'windows xp'
p7
aS'web service'
p8
aS'visual c++'
p9
aS'visual studio'
p10
aS'mysql'
p11
aS'bug tracking'
p12
aS'xml'
p13
aS'web'
p14
aS'autocad'
p15
aS'big data'
p16
aS'c'
aS'dba'
p17
aS'matlab'
p18
aS'pcb'
p19
aS'python'
p20
aS'windows server'
p21
aS'uml'
p22
aS'erp'
p23
aS'db2'
p24
aS'servlet'
p25
aS'dhtml'
p26
aS'.net'
p27
aS'c++'
p28
aS'qa'
p29
aS'architecture'
p30
aS'security'
p31
aS'kernel'
p32
aS'tcp ip'
p33
aS'cisco'
p34
aS'asp'
p35
aS'arm'
p36
aS'vmware'
p37
aS'ftp'
p38
aS'delphi'
p39
aS'shell script'
p40
aS'android app'
p41
aS'access'
p42
aS'web services'
p43
aS'mac os'
p44
aS'dhcp'
p45
aS'hibernate'
p46
aS'windows nt'
p47
aS'ios'
p48
aS'javascript'
p49
aS'bi'
p50
aS'ajax'
p51
aS'plc'
p52
aS'html5'
p53
aS'mes'
p54
aS'embedded system'
p55
aS'j2ee'
p56
aS'postgresql'
p57
aS'socket'
p58
aS'vb.net'
p59
aS'java script'
p60
aS'programming'
p61
aS'mvc'
p62
aS'powerpoint'
p63
aS'etl'
p64
aS'outlook'
p65
aS'firewall'
p66
aS'app'
p67
aS'pos'
p68
aS'unix'
p69
aS'troubleshooting'
p70
aS'zzw3'
p71
aS'linux'
p72
aS'quality'
p73
aS'cloud'
p74
aS'git'
p75
aS'java'
p76
aS'vbscript'
p77
aS'struts'
p78
aS'perl'
p79
aS'bios'
p80
aS'json'
p81
aS'dns'
p82
aS'visio'
p83
aS'shell'
p84
aS'dreamweaver'
p85
aS'iis'
p86
aS'c#'
p87
aS'vba'
p88
aS'oop'
p89
aS'visual basic'
p90
aS'mcu'
p91
aS'vpn'
p92
aS'ruby'
p93
aS'project management'
p94
aS'jquery'
p95
aS'illustrator'
p96
aS'ux'
p97
aS'embedded'
p98
aS'labview'
p99
aS'r'
aS'ui'
p100
aS'tiptop'
p101
aS'usability'
p102
aS'debugging'
p103
aS'ad'
p104
aS'visual basic .net'
p105
aS'ic'
p106
aS'sap'
p107
aS'mssql'
p108
aS'asp.net'
p109
aS'firmware'
p110
aS'excel'
p111
aS'hadoop'
p112
aS'c#.net'
p113
aS'html'
p114
aS'ccna'
p115
aS'android'
p116
aS'mcse'
p117
aS'css'
p118
aS'vlan'
p119
aS'aws'
p120
aS'automation'
p121
aS'mac'
p122
aS'jsp'
p123
aS'sql'
p124
aS'php'
p125
aS'tracking'
p126
aS'tomcat'
p127
aS'sql server'
p128
aS'mobile'
p129
aS'visual studio .net'
p130
aS'c++.net'
p131
aS'ooad'
p132
aS'oracle'
p133
aS'dos'
p134
aS'cpu'
p135
atRp136
.