c__builtin__
set
p1
((lp2
S'windows xp'
p3
aS'umts'
p4
aS'bytecode'
p5
aS'system design'
p6
aS'integrity'
p7
aS'content management'
p8
aS'security manager'
p9
aS'matlab'
p10
aS'spec'
p11
aS'application integration'
p12
aS'computer networking'
p13
aS'risc'
p14
aS'replication'
p15
aS'wimax'
p16
aS'dhcp'
p17
aS'servlet'
p18
aS'voip'
p19
aS'unity3d'
p20
aS'cmc'
p21
aS'upload'
p22
aS'vector'
p23
aS'delegate'
p24
aS'it consultant'
p25
aS'vpn server'
p26
aS'cms'
p27
aS'ups'
p28
aS'secure http'
p29
aS'netbeans'
p30
aS'network connectivity'
p31
aS'adobe acrobat'
p32
aS'street'
p33
aS'virtualization'
p34
aS'mpeg'
p35
aS'enterprise server'
p36
aS'asic'
p37
aS'decoding'
p38
aS'optimization'
p39
aS'mac os'
p40
aS'ner'
p41
aS'technical support'
p42
aS'software development life cycle'
p43
aS'tcl tk'
p44
aS'mes'
p45
aS'information technology'
p46
aS'application security'
p47
aS'vulnerability'
p48
aS'wdm'
p49
aS'sla'
p50
aS'wds'
p51
aS'drm'
p52
aS'computer architecture'
p53
aS'unix'
p54
aS'service desk'
p55
aS'landscape'
p56
aS'open source'
p57
aS'instant message'
p58
aS'technology services'
p59
aS'dns'
p60
aS'memory bus'
p61
aS'jmx'
p62
aS'relay'
p63
aS'jms'
p64
aS'yahoo'
p65
aS'jpg'
p66
aS'vpc'
p67
aS'vpn'
p68
aS'md'
p69
aS'join'
p70
aS'mb'
p71
aS'database security'
p72
aS'eclipse'
p73
aS'erd'
p74
aS'mv'
p75
aS'mp'
p76
aS'ms'
p77
aS'root'
p78
aS'scripting'
p79
aS'smtp'
p80
aS'uat'
p81
aS'software development process'
p82
aS'scheduling'
p83
aS'service provider'
p84
aS'sharepoint'
p85
aS'sata'
p86
aS'actionscript'
p87
aS'c#.net1.'
p88
aS'product release'
p89
aS'gaming'
p90
aS'lan'
p91
aS'mpm'
p92
aS'modulation'
p93
aS'service levels'
p94
aS'lag'
p95
aS'storage capacity'
p96
aS'parallel'
p97
aS'business systems analyst'
p98
aS'wins'
p99
aS'bootstrap'
p100
aS'domain name'
p101
aS'ethernet'
p102
aS'data aggregation'
p103
aS'vfp'
p104
aS'operations'
p105
aS'network security'
p106
aS'feedback'
p107
aS'jpeg'
p108
aS'pascal'
p109
aS'concurrency'
p110
aS'responsive'
p111
aS'system configuration'
p112
aS'fix'
p113
aS'computer system'
p114
aS'ims'
p115
aS'glassfish'
p116
aS'tagging'
p117
aS'mobile device'
p118
aS'software configuration management'
p119
aS'software framework'
p120
aS'security architecture'
p121
aS'safe'
p122
aS'refactoring'
p123
aS'odbc'
p124
aS'intelligent platform management interface'
p125
aS'storage networking'
p126
aS'continuous delivery'
p127
aS'hadoop ecosystem'
p128
aS'gprs'
p129
aS'adobe'
p130
aS'mdm'
p131
aS'core switch'
p132
aS'pbx'
p133
aS'xp'
p134
aS'time to market'
p135
aS'jdbc'
p136
aS'smt'
p137
aS'sms'
p138
aS'smr'
p139
aS'dsp'
p140
aS'rd'
p141
aS'method'
p142
aS'rf'
p143
aS'ra'
p144
aS'distributed system'
p145
aS'rm'
p146
aS'smd'
p147
aS'dsc'
p148
aS'ado.net'
p149
aS'management information system'
p150
aS'ntp'
p151
aS'data scientist'
p152
aS'free'
p153
aS'revision control'
p154
aS'estimate'
p155
aS'gameplay'
p156
aS'acrobat'
p157
aS'ate'
p158
aS'ata'
p159
aS'atl'
p160
aS'isp'
p161
aS'silicon'
p162
aS'mvc'
p163
aS'iso'
p164
aS'isn'
p165
aS'unit test'
p166
aS'microsoft azure'
p167
aS'industrial software'
p168
aS'windows ce'
p169
aS'features'
p170
aS'coding'
p171
aS'encryption algorithm'
p172
aS'vhdl'
p173
aS'tor'
p174
aS'tos'
p175
aS'top'
p176
aS'struts'
p177
aS'stack'
p178
aS'text mining'
p179
aS'it strategy'
p180
aS'task'
p181
aS'regular expression'
p182
aS'cable modem'
p183
aS'data collection'
p184
aS'software life cycle'
p185
aS'evdo'
p186
aS'development environment'
p187
aS'embedded system'
p188
aS'bridge'
p189
aS'lbs'
p190
aS'systems analyst'
p191
aS'rac'
p192
aS'ran'
p193
aS'spectrum'
p194
aS'business intelligence'
p195
aS'system integration'
p196
aS'angularjs'
p197
aS'always on'
p198
aS'same time'
p199
aS'latency'
p200
aS'user experience'
p201
aS'rhce'
p202
aS'firmware'
p203
aS'toeic'
p204
aS'client'
p205
aS'wireless network'
p206
aS'resource allocation'
p207
aS'server os'
p208
aS'bsp'
p209
aS'bsm'
p210
aS'scripts'
p211
aS'bsd'
p212
aS'application firewall'
p213
aS'consumer electronics'
p214
aS'dom'
p215
aS'partition'
p216
aS'enterprise'
p217
aS'dos'
p218
aS'virtual machine'
p219
aS'visual studio'
p220
aS'level design'
p221
aS'internet explorer'
p222
aS'dcom'
p223
aS'availability'
p224
aS'docsis'
p225
aS'layout'
p226
aS'implementation'
p227
aS'dwdm'
p228
aS'ldap'
p229
aS'ocp'
p230
aS'mobile network'
p231
aS'dm'
p232
aS'cryptography'
p233
aS'de'
p234
aS'db'
p235
aS'scalable'
p236
aS'da'
p237
aS'amazon'
p238
aS'downtime'
p239
aS'dv'
p240
aS'dw'
p241
aS'netflow'
p242
aS'dr'
p243
aS'bar'
p244
aS'ietf'
p245
aS'emi'
p246
aS'patch'
p247
aS'zabbix'
p248
aS'architecture'
p249
aS'ems'
p250
aS'object oriented programming'
p251
aS'high availability'
p252
aS'active directory'
p253
aS'motherboard'
p254
aS'peripheral'
p255
aS'radius'
p256
aS'microcode'
p257
aS'foss'
p258
aS'application server'
p259
aS'best'
p260
aS'techniques'
p261
aS'capacity'
p262
aS'delphi'
p263
aS'web developer'
p264
aS'home networking'
p265
aS'ad hoc'
p266
aS'wf'
p267
aS'oms'
p268
aS'cdn'
p269
aS'html5'
p270
aS'wp'
p271
aS'hal'
p272
aS'topology'
p273
aS'web client'
p274
aS'dalvik'
p275
aS'customer support'
p276
aS'agile'
p277
aS'tftp'
p278
aS'audio codec'
p279
aS'com'
p280
aS'data integration'
p281
aS'con'
p282
aS'data mart'
p283
aS'loader'
p284
aS'lambda architecture'
p285
aS'search engine'
p286
aS'proof of concept'
p287
aS'basis'
p288
aS'infotainment'
p289
aS'deep learning'
p290
aS'virtual reality'
p291
aS'extraction'
p292
aS'dreamweaver'
p293
aS'basic'
p294
aS'tutorials'
p295
aS'website'
p296
aS'information management system'
p297
aS'data warehouse architect'
p298
aS'web hosting'
p299
aS'feasibility study'
p300
aS'mcu'
p301
aS'mct'
p302
aS'end user'
p303
aS'mcp'
p304
aS'commerce'
p305
aS'gnu'
p306
aS'air'
p307
aS'aim'
p308
aS'aio'
p309
aS'dashboard'
p310
aS'product management'
p311
aS'anchor'
p312
aS'procedure'
p313
aS'ip'
p314
aS'is'
p315
aS'ir'
p316
aS'image sensor'
p317
aS'database administration'
p318
aS'im'
p319
aS'il'
p320
aS'in'
p321
aS'ia'
p322
aS'ic'
p323
aS'ie'
p324
aS'id'
p325
aS'lock screen'
p326
aS'ccnp'
p327
aS'patent'
p328
aS'couchdb'
p329
aS'quant'
p330
aS'ccna'
p331
aS'design thinking'
p332
aS'mcse'
p333
aS'mcsd'
p334
aS'stored procedure'
p335
aS'raid'
p336
aS'juniper'
p337
aS'hana'
p338
aS'live support'
p339
aS'qualifications'
p340
aS'portal'
p341
aS'hipaa'
p342
aS'disk array'
p343
aS'practices'
p344
aS'help desk'
p345
aS'solaris'
p346
aS'laptop'
p347
aS'mid'
p348
aS'best practice'
p349
aS'visualization'
p350
aS'j2se'
p351
aS'elb'
p352
aS'integrated software'
p353
aS'fortran'
p354
aS'network protocols'
p355
aS'video on demand'
p356
aS'foundation framework'
p357
aS'microcontroller'
p358
aS'web office'
p359
aS'lcd'
p360
aS'opc'
p361
aS'designers'
p362
aS'social networking'
p363
aS'ipsec'
p364
aS'bpm'
p365
aS'markup language'
p366
aS'web content management'
p367
aS'online marketing'
p368
aS'bpr'
p369
aS'android platform'
p370
aS'project management software'
p371
aS'system management'
p372
aS'security'
p373
aS'xbox'
p374
aS'data migration'
p375
aS'ice'
p376
aS'power user'
p377
aS'cnc'
p378
aS'uml'
p379
aS'ict'
p380
aS'core'
p381
aS'barcode'
p382
aS'vdi'
p383
aS'plc'
p384
aS'plm'
p385
aS'postgresql'
p386
aS'sql injection'
p387
aS'joomla'
p388
aS'fcc'
p389
aS'azure'
p390
aS'commit'
p391
aS'j2me'
p392
aS'web programming'
p393
aS'soa'
p394
aS'soc'
p395
aS'presence'
p396
aS'parsing'
p397
aS'system software'
p398
aS'contingency plan'
p399
aS'haskell'
p400
aS'ppt'
p401
aS'direct3d'
p402
aS'wan'
p403
aS'git'
p404
aS'gis'
p405
aS'waf'
p406
aS'sfc'
p407
aS'wordpress'
p408
aS'tcpdump'
p409
aS'wap'
p410
aS'responsive web design'
p411
aS'business process analysis'
p412
aS'fpga'
p413
aS'paypal'
p414
aS'wireless'
p415
aS'heap'
p416
aS'network layer'
p417
aS'jboss'
p418
aS'devices'
p419
aS'cross platform'
p420
aS'data architecture'
p421
aS'trojan horse'
p422
aS'powershell'
p423
aS'classic'
p424
aS'proven'
p425
aS'ddos'
p426
aS'accounting'
p427
aS'network architecture'
p428
aS'ni'
p429
aS'vista'
p430
aS'web design'
p431
aS'nb'
p432
aS'nc'
p433
aS'excel'
p434
aS'windows forms'
p435
aS'digital'
p436
aS'jenkins'
p437
aS'developers'
p438
aS'product introduction'
p439
aS'uefi'
p440
aS'kvm'
p441
aS'update'
p442
aS'build tool'
p443
aS'sql'
p444
aS'variable'
p445
aS'sqa'
p446
aS'help desk management'
p447
aS'disaster recovery'
p448
aS'cloud computing'
p449
aS'wwan'
p450
aS'oltp'
p451
aS'memory card'
p452
aS'n1'
p453
aS'sniffer'
p454
aS'fabless'
p455
aS'session initiation protocol'
p456
aS'ul'
p457
aS'rom'
p458
aS'oss'
p459
aS'framwork'
p460
aS'osi'
p461
aS'solution stack'
p462
aS'informix'
p463
aS'ror'
p464
aS'ux designer'
p465
aS'webmaster'
p466
aS'jvm'
p467
aS'giga'
p468
aS'smartphone'
p469
aS'string'
p470
aS'wcdma'
p471
aS'cocoa touch'
p472
aS'vpn firewall'
p473
aS'erp'
p474
aS'windows client'
p475
aS'gui'
p476
aS'ruby on rails'
p477
aS'diy'
p478
aS'hybrid cloud'
p479
aS'bd'
p480
aS'tcp ip'
p481
aS'pmp'
p482
aS'design pattern'
p483
aS'pms'
p484
aS'pmc'
p485
aS'pmo'
p486
aS'port'
p487
aS'mmc'
p488
aS'hdfs'
p489
aS'smart card'
p490
aS'blade server'
p491
aS'template'
p492
aS'relational'
p493
aS'scada'
p494
aS'performant'
p495
aS'supporting'
p496
aS'transparency'
p497
aS'instant messaging'
p498
aS'apache'
p499
aS'it asset management'
p500
aS'software development'
p501
aS'vb.net'
p502
aS'patch management'
p503
aS'hba'
p504
aS'software testing'
p505
aS'queue'
p506
aS'throughput'
p507
aS'bom'
p508
aS'web page'
p509
aS'macintosh'
p510
aS'ipc'
p511
aS'test driven development'
p512
aS'ips'
p513
aS'backup and recovery'
p514
aS'post'
p515
aS'mss'
p516
aS'perl'
p517
aS'iphone'
p518
aS'https'
p519
aS'visio'
p520
aS'msc'
p521
aS'data management'
p522
aS'ood'
p523
aS'class diagram'
p524
aS'conductor'
p525
aS'video streaming'
p526
aS'visual j#'
p527
aS'business process'
p528
aS'oop'
p529
aS'cases'
p530
aS'release plan'
p531
aS'erp system'
p532
aS'data source'
p533
aS'dhtml'
p534
aS'cas'
p535
aS'car'
p536
aS'functional programming'
p537
aS'machine learning'
p538
aS'reverse engineering'
p539
aS'wallet'
p540
aS'cam'
p541
aS'cal'
p542
aS'cisa'
p543
aS'linux pc'
p544
aS'usability'
p545
aS'chip'
p546
aS'agent'
p547
aS'ids'
p548
aS'web content'
p549
aS'spc'
p550
aS'vpn router'
p551
aS'monitoring'
p552
aS'user experience designer'
p553
aS'c#.net'
p554
aS'android device'
p555
aS'raspberry pi'
p556
aS'xhtml'
p557
aS'lotus domino'
p558
aS'asml'
p559
aS'explorer'
p560
aS'clone'
p561
aS'mac'
p562
aS'sns'
p563
aS'communication protocol'
p564
aS'aop'
p565
aS'data'
p566
aS'man'
p567
aS'sp'
p568
aS'sw'
p569
aS'switch'
p570
aS'sa'
p571
aS'sd'
p572
aS'iptv'
p573
aS'entity'
p574
aS'quality control'
p575
aS'statistical'
p576
aS'cold'
p577
aS'ieee'
p578
aS'enterprise storage'
p579
aS'gtc'
p580
aS'monitor'
p581
aS'arduino'
p582
aS'forms'
p583
aS'window'
p584
aS'decryption'
p585
aS'hybrid cloud storage'
p586
aS'noc'
p587
aS'user interface design'
p588
aS'dns server'
p589
aS'safari'
p590
aS'term'
p591
aS'workload'
p592
aS'sop'
p593
aS'win32'
p594
aS'enterprise software'
p595
aS'domain'
p596
aS'ed'
p597
aS'eg'
p598
aS'ea'
p599
aS'ec'
p600
aS'eb'
p601
aS'san switch'
p602
aS'ex'
p603
aS'eq'
p604
aS'project manager'
p605
aS'hacker'
p606
aS'container'
p607
aS'return on investment'
p608
aS'ejb'
p609
aS'looking'
p610
aS'android sdk'
p611
aS'ble'
p612
aS'an application'
p613
aS'hcm'
p614
aS'hibernate'
p615
aS'embedded software'
p616
aS'cissp'
p617
aS'ajax'
p618
aS'orm'
p619
aS'emulation'
p620
aS'standby'
p621
aS'programming'
p622
aS'dpi'
p623
aS'data security'
p624
aS'router'
p625
aS'eeprom'
p626
aS'lambda'
p627
aS'wlan'
p628
aS'revenue'
p629
aS'rtsp'
p630
aS'demand forecasting'
p631
aS'array'
p632
aS'pabx'
p633
aS'adobe flash'
p634
aS'vsts'
p635
aS'ian'
p636
aS'ofdm'
p637
aS'workaround'
p638
aS'fms'
p639
aS'load balancer'
p640
aS'iaas'
p641
aS'iap'
p642
aS'mining'
p643
aS'hub'
p644
aS'mobile application'
p645
aS'module'
p646
aS'mems'
p647
aS'gpgpu'
p648
aS'r'
aS'enterprise network'
p649
aS'open vswitch'
p650
aS'bts'
p651
aS'browser'
p652
aS'storage management software'
p653
aS'san'
p654
aS'bonjour'
p655
aS'sas'
p656
aS'sar'
p657
aS'sap'
p658
aS'knowledge base'
p659
aS'wcs'
p660
aS'online'
p661
aS'lean startup'
p662
aS'switching'
p663
aS'channel'
p664
aS'buffer'
p665
aS'cdma2000'
p666
aS'beta'
p667
aS'information system'
p668
aS'legacy'
p669
aS'terminal server'
p670
aS'icon'
p671
aS'native application'
p672
aS'system testing'
p673
aS'switch router'
p674
aS'sql server'
p675
aS'open data'
p676
aS'microsoft word'
p677
aS'mrp'
p678
aS'nlp'
p679
aS'qos'
p680
aS'ss7'
p681
aS'visual c++'
p682
aS'cloud infrastructure'
p683
aS'spyware'
p684
aS'revision control system'
p685
aS'bug tracking'
p686
aS'ground'
p687
aS'xml'
p688
aS'upgrade'
p689
aS'static timing analysis'
p690
aS'web scraping'
p691
aS'relational database'
p692
aS'content provider'
p693
aS'data modeling'
p694
aS'personal computer'
p695
aS'test plan'
p696
aS'tft lcd'
p697
aS'ssl'
p698
aS'sso'
p699
aS'ssh'
p700
aS'ssd'
p701
aS'geo'
p702
aS'amazon ec2'
p703
aS'c++'
p704
aS'cloud testing'
p705
aS'enterprise service bus'
p706
aS'mail server'
p707
aS'wiki'
p708
aS'kernel'
p709
aS'windows mobile'
p710
aS'dect'
p711
aS'rma'
p712
aS'audio streaming'
p713
aS'rmi'
p714
aS'j#'
p715
aS'labview'
p716
aS'outsourcing'
p717
aS'websphere'
p718
aS'struts framework'
p719
aS'in sap'
p720
aS'gnss'
p721
aS'wcf'
p722
aS'sap business suite'
p723
aS'data visualization'
p724
aS'java script'
p725
aS'citrix xenserver'
p726
aS'expression'
p727
aS'software engineer'
p728
aS'firewall'
p729
aS'vdsl'
p730
aS'pos'
p731
aS'pop'
p732
aS'bpcs'
p733
aS'zzw3'
p734
aS'data mining'
p735
aS'poc'
p736
aS'scrum master'
p737
aS'tuning'
p738
aS'encryption'
p739
aS'subscriber'
p740
aS'file system'
p741
aS'enterprise instant messaging'
p742
aS'prototype'
p743
aS'engine'
p744
aS'bmc'
p745
aS'secure coding'
p746
aS'bms'
p747
aS'oracle db'
p748
aS'baseband'
p749
aS'ruby'
p750
aS'protocols'
p751
aS'case'
p752
aS'eip'
p753
aS'bpml'
p754
aS'network troubleshooting'
p755
aS'hdd'
p756
aS'eim'
p757
aS'application development'
p758
aS'iva'
p759
aS'metric'
p760
aS'smart device'
p761
aS'parse'
p762
aS'telephony'
p763
aS'cobol'
p764
aS'ivr'
p765
aS'lcd tv'
p766
aS'rwd'
p767
aS'file format'
p768
aS'pat'
p769
aS'media'
p770
aS'iscsi'
p771
aS'authentication'
p772
aS'html'
p773
aS'pad'
p774
aS'pal'
p775
aS'web designer'
p776
aS'root cause analysis'
p777
aS'schemadesign'
p778
aS'thunderbolt'
p779
aS'windows vista'
p780
aS'rfid'
p781
aS'web server'
p782
aS'hsdpa'
p783
aS'wpf'
p784
aS'wpa'
p785
aS'tracking'
p786
aS'macro'
p787
aS'markup'
p788
aS'ccs'
p789
aS'it services'
p790
aS'ccd'
p791
aS'model'
p792
aS'modem'
p793
aS'frontpage'
p794
aS'assembly language'
p795
aS'nosql'
p796
aS'leadership skills'
p797
aS'rest'
p798
aS'change management'
p799
aS'mosfet'
p800
aS'samba'
p801
aS'autocad'
p802
aS'desktop'
p803
aS'blog'
p804
aS'ami'
p805
aS'data warehouse'
p806
aS'windows server'
p807
aS'amd'
p808
aS'office suite'
p809
aS'sccm'
p810
aS'mom'
p811
aS'call center'
p812
aS'credentials'
p813
aS'wbs'
p814
aS'server'
p815
aS'programmable logic controller'
p816
aS'blackberry'
p817
aS'output'
p818
aS'fiber optic'
p819
aS'passionate'
p820
aS'jsp'
p821
aS'storage server'
p822
aS'cisco'
p823
aS'zigbee'
p824
aS'gpib'
p825
aS'pipelining'
p826
aS'ddr'
p827
aS'redis'
p828
aS'protocol'
p829
aS'ptt'
p830
aS'provides'
p831
aS'ddl'
p832
aS'programming language'
p833
aS'nms'
p834
aS'tdd'
p835
aS'bar code'
p836
aS'leadership'
p837
aS'netbios'
p838
aS'ok'
p839
aS'ace'
p840
aS'package'
p841
aS'oa'
p842
aS'spss'
p843
aS'act'
p844
aS'ot'
p845
aS'backup'
p846
aS'processor'
p847
aS'op'
p848
aS'outlook'
p849
aS'browser compatibility'
p850
aS'enterprise application'
p851
aS'operator'
p852
aS'igmp'
p853
aS'log shipping'
p854
aS'ehr'
p855
aS'los'
p856
aS'core network'
p857
aS'ipv4'
p858
aS'ipv6'
p859
aS'server virtualization'
p860
aS'bounce rate'
p861
aS'application program'
p862
aS'dvi'
p863
aS'technologies'
p864
aS'spice'
p865
aS'illustrator'
p866
aS'algorithm'
p867
aS'embedded'
p868
aS'tiptop'
p869
aS'line in'
p870
aS'ac'
p871
aS'scanner'
p872
aS'af'
p873
aS'ai'
p874
aS'sqoop'
p875
aS'am'
p876
aS'al'
p877
aS'nagios'
p878
aS'aq'
p879
aS'ap'
p880
aS'objective-c'
p881
aS'ar'
p882
aS'file'
p883
aS'adsl'
p884
aS'internet desktop'
p885
aS'digital signal processing'
p886
aS'antenna'
p887
aS'igp'
p888
aS'drivers'
p889
aS'storage'
p890
aS'field'
p891
aS'network video recorder'
p892
aS'openid'
p893
aS'amoled'
p894
aS'connected devices'
p895
aS'a+'
p896
aS'includes'
p897
aS'ansi'
p898
aS'dropbox'
p899
aS'cpl'
p900
aS'wifi'
p901
aS'cpe'
p902
aS'interaction design'
p903
aS'resolution'
p904
aS'cpu'
p905
aS'scm'
p906
aS'busybox'
p907
aS'bapi'
p908
aS'apple push notification service'
p909
aS'web service'
p910
aS'scc'
p911
aS'dss'
p912
aS'mp4'
p913
aS'mp3'
p914
aS'user experience design'
p915
aS'disk'
p916
aS'mnd'
p917
aS'scp'
p918
aS'scr'
p919
aS'semiconductor'
p920
aS'wms'
p921
aS'directory services'
p922
aS'rtos'
p923
aS'dsl'
p924
aS'c6'
p925
aS'tn'
p926
aS'ta'
p927
aS'code review'
p928
aS'faq'
p929
aS'mpi'
p930
aS'balancing'
p931
aS'mps'
p932
aS'mobileweb'
p933
aS'cable'
p934
aS'mapreduce'
p935
aS'smb'
p936
aS'system programming'
p937
aS'webdav'
p938
aS'java object'
p939
aS'configuration management'
p940
aS'vb .net'
p941
aS'systems analysis'
p942
aS'zero'
p943
aS'enhancement'
p944
aS'network infrastructure'
p945
aS'app store'
p946
aS'cloud services'
p947
aS'nand'
p948
aS'android app'
p949
aS'microchip'
p950
aS'public'
p951
aS'embedded device'
p952
aS'hash'
p953
aS'server colocation'
p954
aS'test script'
p955
aS'machine vision'
p956
aS'component'
p957
aS'answers'
p958
aS'codebase'
p959
aS'modular'
p960
aS'b2c'
p961
aS'b2b'
p962
aS'compliance'
p963
aS'function key'
p964
aS'advertising'
p965
aS'manufacturer'
p966
aS'model view controller'
p967
aS'jailbreak'
p968
aS'ha storage'
p969
aS'appliances'
p970
aS'functional reactive programming'
p971
aS'mobile advertising'
p972
aS'device driver'
p973
aS'management software'
p974
aS'foxpro'
p975
aS'rhel'
p976
aS'vi'
p977
aS'hardware troubleshooting'
p978
aS'authorization'
p979
aS'email server'
p980
aS'network administrator'
p981
aS'vp'
p982
aS'san security'
p983
aS'visual basic'
p984
aS'atm'
p985
aS'msql'
p986
aS'apache tomcat'
p987
aS'information'
p988
aS'csd'
p989
aS'acts'
p990
aS'csa'
p991
aS'csb'
p992
aS'maps'
p993
aS'c sharp'
p994
aS'csv'
p995
aS'css'
p996
aS'csr'
p997
aS'fp'
p998
aS'powerbuilder'
p999
aS'vlan'
p1000
aS'fb'
p1001
aS'fc'
p1002
aS'fi'
p1003
aS'fm'
p1004
aS'workstation'
p1005
aS'access layer'
p1006
aS'documentation'
p1007
aS'django'
p1008
aS'scsi'
p1009
aS'benchmarking'
p1010
aS'storage device'
p1011
aS'photoshop'
p1012
aS'xmpp'
p1013
aS'interpersonal'
p1014
aS'its'
p1015
aS'developer'
p1016
aS'serdes'
p1017
aS'enterprise class'
p1018
aS'pcs'
p1019
aS'user interface'
p1020
aS'pci'
p1021
aS'pcb'
p1022
aS'motivated'
p1023
aS'ceh'
p1024
aS'orcad'
p1025
aS'communities'
p1026
aS'pam'
p1027
aS'token'
p1028
aS'mobile payment'
p1029
aS'accelerator'
p1030
aS'knowledge management'
p1031
aS'idea'
p1032
aS'event'
p1033
aS'ftp'
p1034
aS'catia'
p1035
aS'network monitoring'
p1036
aS'sdlc'
p1037
aS'offline'
p1038
aS'network design'
p1039
aS'asp'
p1040
aS'localization'
p1041
aS'asa'
p1042
aS'cookie'
p1043
aS'search engine optimization'
p1044
aS'visual foxpro'
p1045
aS'bash'
p1046
aS'network performance'
p1047
aS'thread'
p1048
aS'drupal'
p1049
aS'circuit'
p1050
aS'cdma'
p1051
aS'rails'
p1052
aS'production environment'
p1053
aS'it operations'
p1054
aS'gpo'
p1055
aS'dfx'
p1056
aS'dfs'
p1057
aS'weblogic'
p1058
aS'gpu'
p1059
aS'thin client'
p1060
aS'system requirements'
p1061
aS'gps'
p1062
aS'relationship'
p1063
aS'microsoft windows'
p1064
aS'apache spark'
p1065
aS'windows embedded'
p1066
aS'nca'
p1067
aS'jquery'
p1068
aS'google play'
p1069
aS'aaa'
p1070
aS'stb'
p1071
aS'stl'
p1072
aS'solution architecture'
p1073
aS'restful'
p1074
aS'continuous integration'
p1075
aS'debugging'
p1076
aS'massively parallel processing'
p1077
aS'hacking'
p1078
aS'amazon web services'
p1079
aS'internet of things'
p1080
aS'modbus'
p1081
aS'lib'
p1082
aS'software architecture'
p1083
aS'lin'
p1084
aS'pmi'
p1085
aS'internal'
p1086
aS'rich media'
p1087
aS'problem management'
p1088
aS'jsf'
p1089
aS'bdd'
p1090
aS'service level agreement'
p1091
aS'architects'
p1092
aS'virus'
p1093
aS'experiences'
p1094
aS'moss'
p1095
aS'data architect'
p1096
aS'mobile'
p1097
aS'tpm'
p1098
aS'km'
p1099
aS'tps'
p1100
aS'caching'
p1101
aS'velocity'
p1102
aS'microsoft'
p1103
aS'rtd'
p1104
aS'hyper'
p1105
aS'rtc'
p1106
aS'xcode'
p1107
aS'session'
p1108
aS'relation'
p1109
aS'rtp'
p1110
aS'tft'
p1111
aS'internet security'
p1112
aS'networks'
p1113
aS'cell'
p1114
aS'big data'
p1115
aS'distributed'
p1116
aS'his'
p1117
aS'ad domain'
p1118
aS'cloud app'
p1119
aS'synchronization'
p1120
aS'banner'
p1121
aS'compiler'
p1122
aS'rfp'
p1123
aS'abap'
p1124
aS'rfc'
p1125
aS'computer engineering'
p1126
aS'rfi'
p1127
aS'ccsp'
p1128
aS'crm'
p1129
aS'arp'
p1130
aS'set'
p1131
aS'flow chart'
p1132
aS'startup'
p1133
aS'seo'
p1134
aS'distributed computing'
p1135
aS'sem'
p1136
aS'arm'
p1137
aS'analog'
p1138
aS'shell script'
p1139
aS'familiarity'
p1140
aS'router firmware'
p1141
aS'ui design'
p1142
aS'contact us'
p1143
aS'dedicated server'
p1144
aS'server software'
p1145
aS'creating'
p1146
aS'xslt'
p1147
aS'javascript'
p1148
aS'it infrastructure'
p1149
aS'scalability'
p1150
aS'interface'
p1151
aS'user exit'
p1152
aS'inter process communication'
p1153
aS'j2ee'
p1154
aS'license'
p1155
aS'pdm'
p1156
aS'context'
p1157
aS'pdf'
p1158
aS'pda'
p1159
aS'geolocation'
p1160
aS'simple'
p1161
aS'community'
p1162
aS'c shell'
p1163
aS'linux'
p1164
aS'backend'
p1165
aS'recommendation engine'
p1166
aS'java'
p1167
aS'pw'
p1168
aS'pg'
p1169
aS'pi'
p1170
aS'adc'
p1171
aS'rich client'
p1172
aS'great'
p1173
aS'iterative development'
p1174
aS'radio frequency'
p1175
aS'whql'
p1176
aS'mpls'
p1177
aS'batch'
p1178
aS'mainframe'
p1179
aS'dms'
p1180
aS'designing'
p1181
aS'loop'
p1182
aS'engineers'
p1183
aS'vod'
p1184
aS'bot'
p1185
aS'rip'
p1186
aS'network management'
p1187
aS'skype'
p1188
aS'baseline'
p1189
aS'content delivery network'
p1190
aS'object storage'
p1191
aS'hadoop'
p1192
aS'knowledge management system'
p1193
aS'modification'
p1194
aS'mobile app'
p1195
aS'development'
p1196
aS'x86'
p1197
aS'mips'
p1198
aS'domain controller'
p1199
aS'cto'
p1200
aS'pattern recognition'
p1201
aS'database'
p1202
aS'ipsec vpn'
p1203
aS'edge'
p1204
aS'program manager'
p1205
aS'consistency'
p1206
aS'docker'
p1207
aS'i2c'
p1208
aS'gsm'
p1209
aS'sap hana'
p1210
aS'dbase'
p1211
aS'deployment'
p1212
aS'adas'
p1213
aS'mysql'
p1214
aS'load testing'
p1215
aS'tablet'
p1216
aS'dc'
p1217
aS'kinect'
p1218
aS'vswitch'
p1219
aS'customers'
p1220
aS'vendor'
p1221
aS'ipmi'
p1222
aS'bit'
p1223
aS'winform'
p1224
aS'activex'
p1225
aS'semi'
p1226
aS'signal'
p1227
aS'communications'
p1228
aS'google'
p1229
aS'prototyping'
p1230
aS'streaming'
p1231
aS'system administrator'
p1232
aS'scala'
p1233
aS'broadband'
p1234
aS'saas'
p1235
aS'integration'
p1236
aS'pxe'
p1237
aS'web services'
p1238
aS'cgi'
p1239
aS'teradata'
p1240
aS'ba'
p1241
aS'bo'
p1242
aS'bi'
p1243
aS'bu'
p1244
aS'bw'
p1245
aS'content management system'
p1246
aS'oem'
p1247
aS'bs'
p1248
aS'rup'
p1249
aS'mssql'
p1250
aS'pipeline'
p1251
aS'uart'
p1252
aS'private cloud'
p1253
aS'data model'
p1254
aS'simulation'
p1255
aS'bgp'
p1256
aS'range'
p1257
aS'messaging'
p1258
aS'ide'
p1259
aS'microsoft office'
p1260
aS'gamma'
p1261
aS'ida'
p1262
aS'garbage'
p1263
aS'servers'
p1264
aS'software architect'
p1265
aS'troubleshooting'
p1266
aS'msp'
p1267
aS'manual testing'
p1268
aS'clustering'
p1269
aS'spam'
p1270
aS'vbscript'
p1271
aS'fast'
p1272
aS'accountability'
p1273
aS'bios'
p1274
aS'heroku'
p1275
aS'forward'
p1276
aS'bsc'
p1277
aS'functional testing'
p1278
aS'mcitp'
p1279
aS'sdr'
p1280
aS'webcam'
p1281
aS'memory'
p1282
aS'linq'
p1283
aS'sdn'
p1284
aS'pwm'
p1285
aS'sdh'
p1286
aS'sdk'
p1287
aS'fda'
p1288
aS'csslp'
p1289
aS'ux'
p1290
aS'network software'
p1291
aS'middleware'
p1292
aS'cim'
p1293
aS'utm'
p1294
aS'cis'
p1295
aS'windows'
p1296
aS'ui'
p1297
aS'verification'
p1298
aS'capacity planning'
p1299
aS'ug'
p1300
aS'uc'
p1301
aS'constant'
p1302
aS'microsoft exchange'
p1303
aS'parser'
p1304
aS'accessibility'
p1305
aS'chat'
p1306
aS'organizational'
p1307
aS'application performance'
p1308
aS'amqp'
p1309
aS'nas'
p1310
aS'codec'
p1311
aS'nat'
p1312
aS'virtualization software'
p1313
aS'best practices'
p1314
aS'load balancing router'
p1315
aS'nice'
p1316
aS'mongodb'
p1317
aS'mcdba'
p1318
aS'scrum'
p1319
aS'problems'
p1320
aS'project plan'
p1321
aS'system time'
p1322
aS'dram'
p1323
aS'svn'
p1324
aS'independently'
p1325
aS'methodologies'
p1326
aS'wafer'
p1327
aS'youtube'
p1328
aS'unit testing'
p1329
aS'dvb'
p1330
aS'oracle'
p1331
aS'web browser'
p1332
aS'c++.net'
p1333
aS'edc'
p1334
aS'eda'
p1335
aS'process management'
p1336
aS'virtual server'
p1337
aS'edi'
p1338
aS'wordperfect'
p1339
aS'resistance'
p1340
aS'edm'
p1341
aS'mobile web'
p1342
aS'gc'
p1343
aS'legal'
p1344
aS'query'
p1345
aS'gm'
p1346
aS'gl'
p1347
aS'issues'
p1348
aS'ddk'
p1349
aS'quality assurance'
p1350
aS'junit'
p1351
aS'facebook'
p1352
aS'cellular'
p1353
aS'web form'
p1354
aS'transmission'
p1355
aS'scripting language'
p1356
aS'michael'
p1357
aS'hive'
p1358
aS'olap'
p1359
aS'race'
p1360
aS'vulnerability assessment'
p1361
aS'rack'
p1362
aS'video compression'
p1363
aS'cfd'
p1364
aS'dcm'
p1365
aS'video'
p1366
aS'odm'
p1367
aS'rrs'
p1368
aS'vmware'
p1369
aS'windows nt'
p1370
aS'index'
p1371
aS'bdc'
p1372
aS'video conferencing'
p1373
aS'multimedia'
p1374
aS'xdsl'
p1375
aS'access'
p1376
aS'winrt'
p1377
aS'microprocessor'
p1378
aS'sdp'
p1379
aS'isapi'
p1380
aS'wireshark'
p1381
aS'led'
p1382
aS'hdmi'
p1383
aS'commercial'
p1384
aS'ubuntu'
p1385
aS'hspa+'
p1386
aS'nids'
p1387
aS'vba'
p1388
aS'rfid reader'
p1389
aS'rdp'
p1390
aS'rds'
p1391
aS'cts'
p1392
aS'hypervisor'
p1393
aS'boot loader'
p1394
aS'test automation'
p1395
aS'document management'
p1396
aS'social platform'
p1397
aS'rdc'
p1398
aS'rdb'
p1399
aS'cad'
p1400
aS'cti'
p1401
aS'physical security'
p1402
aS'ip network'
p1403
aS'firefox'
p1404
aS'aps'
p1405
aS'app'
p1406
aS'sqlite'
p1407
aS'private'
p1408
aS'api'
p1409
aS'linux kernel'
p1410
aS'gateway'
p1411
aS'cloud'
p1412
aS'it governance'
p1413
aS'social media'
p1414
aS'fed'
p1415
aS'usb'
p1416
aS'computer network'
p1417
aS'next'
p1418
aS'embedded linux'
p1419
aS'vb net'
p1420
aS'performance management'
p1421
aS'iis'
p1422
aS'xaml'
p1423
aS'benchmark'
p1424
aS'iic'
p1425
aS'project management'
p1426
aS'fan'
p1427
aS'account'
p1428
aS'clients'
p1429
aS'agile software development'
p1430
aS'protocol stack'
p1431
aS'tap'
p1432
aS'parallel computing'
p1433
aS'lock'
p1434
aS'business logic'
p1435
aS'tag'
p1436
aS'acl'
p1437
aS'native'
p1438
aS'sip'
p1439
aS'sit'
p1440
aS'handover'
p1441
aS'application architecture'
p1442
aS'responsibilities'
p1443
aS'lotus notes'
p1444
aS'sim'
p1445
aS'sd card'
p1446
aS'database server'
p1447
aS'npi'
p1448
aS'collection'
p1449
aS'java ee'
p1450
aS'notebook'
p1451
aS'it management'
p1452
aS'product life cycle management'
p1453
aS'release management'
p1454
aS'tier'
p1455
aS'nps'
p1456
aS'paas'
p1457
aS'object relational mapping'
p1458
aS'ospf'
p1459
aS'freebsd'
p1460
aS'vmm'
p1461
aS'provisioning'
p1462
aS'vms'
p1463
aS'directx'
p1464
aS'volte'
p1465
aS'use case'
p1466
aS'lamp'
p1467
aS'li'
p1468
aS'conformance'
p1469
aS'flex'
p1470
aS'dac'
p1471
aS'python'
p1472
aS'indexing'
p1473
aS'online service'
p1474
aS'power management'
p1475
aS'articles'
p1476
aS'wintel'
p1477
aS'nfc'
p1478
aS'.net'
p1479
aS'merge'
p1480
aS'augmented reality'
p1481
aS'l2'
p1482
aS'mode'
p1483
aS'l1'
p1484
aS'kpi'
p1485
aS'identifier'
p1486
aS'oracle database'
p1487
aS'hlr'
p1488
aS'bluetooth'
p1489
aS'meta'
p1490
aS'static'
p1491
aS'variety'
p1492
aS'vc++'
p1493
aS'programmer'
p1494
aS'hld'
p1495
aS'openflow'
p1496
aS'vcm'
p1497
aS'vendor management'
p1498
aS'rel'
p1499
aS'response time'
p1500
aS'real time'
p1501
aS'data access'
p1502
aS'ecc'
p1503
aS'workflow'
p1504
aS'subject matter expert'
p1505
aS'data quality'
p1506
aS'distributed development'
p1507
aS'ecr'
p1508
aS'regulatory'
p1509
aS'linux server'
p1510
aS'midi'
p1511
aS'adapters'
p1512
aS'lte'
p1513
aS'security software'
p1514
aS'information architecture'
p1515
aS'android market'
p1516
aS'data integrity'
p1517
aS'silicon valley'
p1518
aS'cmmi'
p1519
aS'human capital management'
p1520
aS'software licensing'
p1521
aS'continuous improvement'
p1522
aS'quality'
p1523
aS'data storage'
p1524
aS'attack'
p1525
aS'zend framework'
p1526
aS'raid controller'
p1527
aS'asset tracking'
p1528
aS'final'
p1529
aS'udp'
p1530
aS'shell'
p1531
aS'software program'
p1532
aS'sequence diagram'
p1533
aS'rsa'
p1534
aS'cloud os'
p1535
aS'web application firewall'
p1536
aS'ipad'
p1537
aS'public cloud'
p1538
aS'isolation'
p1539
aS'mbps'
p1540
aS'ssl vpn'
p1541
aS'windows service'
p1542
aS'application framework'
p1543
aS'partnership'
p1544
aS'min'
p1545
aS'asp.net'
p1546
aS'mic'
p1547
aS'lotusscript'
p1548
aS'si'
p1549
aS'cics'
p1550
aS'network server'
p1551
aS'mis'
p1552
aS'wan accelerator'
p1553
aS'soap'
p1554
aS'collaboration'
p1555
aS'aws'
p1556
aS'ftp server'
p1557
aS'device'
p1558
aS'class'
p1559
aS'software engineering'
p1560
aS'zfs'
p1561
aS'ooad'
p1562
aS'databases'
p1563
aS'mobile games'
p1564
aS'dba'
p1565
aS'vcap'
p1566
aS'product life cycle'
p1567
aS'network architect'
p1568
aS'partners'
p1569
aS'cache'
p1570
aS'terminal'
p1571
aS'tape'
p1572
aS'interoperability'
p1573
aS'csrf'
p1574
aS'operating system'
p1575
aS'db2'
p1576
aS'qs'
p1577
aS'ios sdk'
p1578
aS'qt'
p1579
aS'teams'
p1580
aS'qa'
p1581
aS'qc'
p1582
aS'acceptance test'
p1583
aS'content delivery'
p1584
aS'management information systems'
p1585
aS'edge switch'
p1586
aS'view'
p1587
aS'cognos'
p1588
aS'software maintenance'
p1589
aS'frame'
p1590
aS'packet'
p1591
aS'computer'
p1592
aS'ip camera'
p1593
aS'system administration'
p1594
aS'vmware esx'
p1595
aS'web services software'
p1596
aS'record'
p1597
aS'information management'
p1598
aS'dll'
p1599
aS'lua'
p1600
aS'state'
p1601
aS'dlp'
p1602
aS'verilog'
p1603
aS'email'
p1604
aS'source code'
p1605
aS'database design'
p1606
aS'implementing'
p1607
aS'xen hypervisor'
p1608
aS'configuration'
p1609
aS'swift'
p1610
aS'tls'
p1611
aS'smart tv'
p1612
aS'aqua'
p1613
aS'netweaver'
p1614
aS'etl'
p1615
aS'ci'
p1616
aS'ucs'
p1617
aS'cm'
p1618
aS'vxworks'
p1619
aS'cc'
p1620
aS'ca'
p1621
aS'.net framework'
p1622
aS'ce'
p1623
aS'cd'
p1624
aS'rpg'
p1625
aS'table'
p1626
aS'ad'
p1627
aS'rdbms'
p1628
aS'wpa2'
p1629
aS'vts'
p1630
aS'json'
p1631
aS'proxy server'
p1632
aS'process control'
p1633
aS'porting'
p1634
aS'waste'
p1635
aS'pic'
p1636
aS'c#'
p1637
aS'c'
aS'tcpip'
p1638
aS'controller'
p1639
aS'hmi'
p1640
aS'otp'
p1641
aS'ott'
p1642
aS'cloud storage'
p1643
aS'software quality assurance'
p1644
aS'laser'
p1645
aS'android tablet'
p1646
aS'onboarding'
p1647
aS'cvs'
p1648
aS'cursor'
p1649
aS'lan switching'
p1650
aS'ilo'
p1651
aS'intranet'
p1652
aS'va'
p1653
aS'layer'
p1654
aS'vc'
p1655
aS'demo'
p1656
aS'project planning'
p1657
aS'squid'
p1658
aS'vm'
p1659
aS'linkedin'
p1660
aS'hardware'
p1661
aS'vr'
p1662
aS'vs'
p1663
aS'random testing'
p1664
aS'partner'
p1665
aS'capture'
p1666
aS'uptime'
p1667
aS'connection'
p1668
aS'unity'
p1669
aS'spring framework'
p1670
aS'fraud detection'
p1671
aS'work flow'
p1672
aS'android'
p1673
aS'web development'
p1674
aS'cod'
p1675
aS'iot'
p1676
aS'ios'
p1677
aS'automation'
p1678
aS'c++ programming language'
p1679
aS'photoimpact'
p1680
aS'php'
p1681
aS'database administrator'
p1682
aS'transaction'
p1683
aS'visual studio .net'
p1684
aS'data center'
p1685
aS'command'
p1686
aS'english'
p1687
aS'audio'
p1688
aS'mfc'
p1689
aS'android os'
p1690
aS'xen'
p1691
aS'database developer'
p1692
aS'server room'
p1693
aS'tcl'
p1694
aS'stored'
p1695
aS'sku'
p1696
aS'web'
p1697
aS'microsoft project'
p1698
aS'console'
p1699
aS'battery'
p1700
aS'network administration'
p1701
aS'dqa'
p1702
aS'ada'
p1703
aS'gms'
p1704
aS'ado'
p1705
aS'adm'
p1706
aS'smart'
p1707
aS'data structure'
p1708
aS'saturation'
p1709
aS'nvr'
p1710
aS'communication software'
p1711
aS'mathematics'
p1712
aS'file server'
p1713
aS'xss'
p1714
aS'page'
p1715
aS'xsl'
p1716
aS'twitter'
p1717
aS'library'
p1718
aS'home'
p1719
aS'tms'
p1720
aS'ess'
p1721
aS'overlay'
p1722
aS'lean'
p1723
aS'esb'
p1724
aS'information security'
p1725
aS'nfs'
p1726
aS'noise'
p1727
aS'maven'
p1728
aS'host'
p1729
aS'new product development'
p1730
aS'pv'
p1731
aS'analyses'
p1732
aS'panel'
p1733
aS'socket'
p1734
aS'carrier'
p1735
aS'nds'
p1736
aS'powerpoint'
p1737
aS'software'
p1738
aS'netapp storage'
p1739
aS'mobile phone'
p1740
aS'load balancing'
p1741
aS'w3c'
p1742
aS'networking'
p1743
aS'ad hoc testing'
p1744
aS'snmp'
p1745
aS'owasp'
p1746
aS'sgsn'
p1747
aS'product manager'
p1748
aS'parallel processing'
p1749
aS'mpls vpn'
p1750
aS'vas'
p1751
aS'garbage collection'
p1752
aS'artificial intelligence'
p1753
aS'eai'
p1754
aS'repeater'
p1755
aS'integration testing'
p1756
aS'hr'
p1757
aS'bus'
p1758
aS'ibm pc'
p1759
aS'lnternet'
p1760
aS'hw'
p1761
aS'volume'
p1762
aS'hi'
p1763
aS'gain'
p1764
aS'oauth'
p1765
aS'eap'
p1766
aS'ha'
p1767
aS'bug'
p1768
aS'dma'
p1769
aS'fragmentation'
p1770
aS'itil'
p1771
aS'tomcat'
p1772
aS'dml'
p1773
aS'hosting'
p1774
aS'byoc'
p1775
aS'frequency'
p1776
aS'byod'
p1777
aS'chipset'
p1778
aS'distribution'
p1779
aS'cpc'
p1780
aS'pc game'
p1781
aS'pin'
p1782
aS'int'
p1783
aS'citrix'
p1784
aS'visual basic .net'
p1785
aS'cmos'
p1786
aS'application software'
p1787
aS'calibration'
p1788
aS'hpc'
p1789
aS'riak'
p1790
aS'trouble ticket'
p1791
aS'ghost'
p1792
aS'sass'
p1793
aS'command line'
p1794
aS'microelectronics'
p1795
aS'storage management'
p1796
aS'validation'
p1797
atRp1798
.