c__builtin__
set
p1
((lp2
S'fawn'
p3
aS'gatekeeper'
p4
aS'h.264'
p5
aS'fdcc'
p6
aS'acceleratedsap'
p7
aS''
aS'negp'
p8
aS'e learning'
p9
aS'paradigm'
p10
aS'manufacturing resource planning'
p11
aS'unsolicited bulk e-mail'
p12
aS'i/o virtualization'
p13
aS'umts'
p14
aS'zif'
p15
aS'm3u (moving picture experts group audio layer 3...'
p16
aS'row address strobe'
p17
aS'sap rds'
p18
aS'fast guide to cd/dvd'
p19
aS'kilocalorie'
p20
aS'idoru'
p21
aS'national institute of standards and technology'
p22
aS'uiml'
p23
aS'waas'
p24
aS'abhenry'
p25
aS'xenodochial'
p26
aS'on demand computing'
p27
aS'vandal'
p28
aS'm2m'
p29
aS'ecdl'
p30
aS'palladium'
p31
aS'telechir'
p32
aS'man in the middle attack'
p33
aS'backscatter spam'
p34
aS'aup'
p35
aS'learn it: instant messaging in the enterprise'
p36
aS'unit of pressure or stress'
p37
aS'update sequence number'
p38
aS'quantum computing'
p39
aS'16 bit unicode transformation format'
p40
aS'bourne again shell'
p41
aS'v.35'
p42
aS'yms'
p43
aS'natural language'
p44
aS'@'
aS'marimba'
p45
aS'jumbo frames'
p46
aS'id3 tag'
p47
aS'vasa'
p48
aS'radiant intensity'
p49
aS'messaging application program interface'
p50
aS'ultra dma'
p51
aS'e procurement'
p52
aS'santa claus rally'
p53
aS'jack'
p54
aS'java data objects'
p55
aS'tagging'
p56
aS'e nose'
p57
aS'unix cheat sheets'
p58
aS'cmm'
p59
aS'sales and operations planning'
p60
aS'fcaps'
p61
aS'e tailing'
p62
aS'fast guide to case studies'
p63
aS'fdma'
p64
aS'management and operations'
p65
aS'machine authentication'
p66
aS'fha'
p67
aS'radio frequency'
p68
aS'ca-acf2'
p69
aS'vector'
p70
aS'jump drive'
p71
aS'manchester encoding'
p72
aS'off-grid data center'
p73
aS'active/active array'
p74
aS'ups'
p75
aS'believe it or not'
p76
aS'id3v1'
p77
aS'secure http'
p78
aS'icd-9-cm'
p79
aS'ogg theora'
p80
aS'e-mail archive'
p81
aS'bacon'
p82
aS'10g'
p83
aS'vesa local bus'
p84
aS'802.1x'
p85
aS'watt-hour'
p86
aS'802.11 fast guide'
p87
aS'vhdx'
p88
aS'd-vhs'
p89
aS'backward mapping'
p90
aS'half-duplex'
p91
aS'fecn'
p92
aS'joint bi-level image experts group'
p93
aS'nbma'
p94
aS'john the ripper'
p95
aS't model'
p96
aS'fast guide to regulatory compliance'
p97
aS'youtube'
p98
aS'r-value'
p99
aS'samsung knox'
p100
aS'yak shaving'
p101
aS'1:1 marketing'
p102
aS'layer 2'
p103
aS'layer 3'
p104
aS'behavior-driven development'
p105
aS'mainframe'
p106
aS'law of diminishing returns'
p107
aS'dbir'
p108
aS'keystroke id'
p109
aS'josephson junction'
p110
aS'legacy application'
p111
aS'market development funds'
p112
aS'mailing list server'
p113
aS'vendor lock-in'
p114
aS'umpc'
p115
aS'uefi'
p116
aS'keep it simple stupid'
p117
aS'w32.duqu'
p118
aS'tcl tk'
p119
aS'national committee on vital and health statistics'
p120
aS'uniform resource locator'
p121
aS'b channel'
p122
aS'california security breach information act (sb-...'
p123
aS'becn'
p124
aS'accounts receivable'
p125
aS'mes'
p126
aS'yagi uda array'
p127
aS'magneto optical drive'
p128
aS'x.509 certificate'
p129
aS'jax rpc'
p130
aS'juarez'
p131
aS'very large database'
p132
aS'object storage: fast guide'
p133
aS'k'
aS'8x'
p134
aS'techtarget porfolio of web sites'
p135
aS'nanopaper'
p136
aS'year 2000'
p137
aS'wds'
p138
aS'remote access trojan'
p139
aS'backup software'
p140
aS'maintain and operate the organization systems a...'
p141
aS'keyboard wedge'
p142
aS'versastack'
p143
aS'keystroke dynamics'
p144
aS'hard-drive encryption'
p145
aS'internet architecture board'
p146
aS'absiemens'
p147
aS'td-scdma'
p148
aS'unknowable risk'
p149
aS'electromagnetic bomb'
p150
aS'jumbogram'
p151
aS'unix'
p152
aS'keylogging software'
p153
aS'bri'
p154
aS'type ii error'
p155
aS'telecommunications display device'
p156
aS'rack server'
p157
aS'universal plug and play'
p158
aS'ieak'
p159
aS'genomics'
p160
aS'redundant array of independent disks'
p161
aS'javascript object notation'
p162
aS'parallel presence detect'
p163
aS'marchitecture'
p164
aS'zettabyte'
p165
aS'call failure rate'
p166
aS'amazon simple email service'
p167
aS'jdbc connector (java database connectivity conn...'
p168
aS'barnacle'
p169
aS'easter egg'
p170
aS'e3'
p171
aS'backpropagation algorithm'
p172
aS'bbcs'
p173
aS'fastcgi'
p174
aS'jmx'
p175
aS'versamodular eurocard bus'
p176
aS'mantle'
p177
aS'frequency division multiple access'
p178
aS'jms'
p179
aS'feature manipulation engine'
p180
aS'ultrawideband'
p181
aS'yahoo'
p182
aS'warp'
p183
aS'non-broadcast multiple access'
p184
aS'universal business language'
p185
aS'universal coordinated time'
p186
aS'quantum cryptography'
p187
aS'gaming the system'
p188
aS'jpg'
p189
aS'marcom'
p190
aS'parallel ata (parallel advanced technology atta...'
p191
aS'laser printer'
p192
aS'vcard'
p193
aS'p4p'
p194
aS'sap planned delivery time'
p195
aS'call admission control'
p196
aS'national alliance for health information techno...'
p197
aS'acceptable use policy'
p198
aS'inline frame'
p199
aS'm.2 ssd'
p200
aS'mo'
p201
aS'eclipse'
p202
aS'dynamic function loading'
p203
aS'ht, walkie talkie, handheld'
p204
aS'dafs'
p205
aS'vendor neutral'
p206
aS'ta'
p207
aS'ramdac (random access memory digital-to-analog ...'
p208
aS'k-scale for internet addiction'
p209
aS'ice cream sandwich'
p210
aS'sales certification'
p211
aS'universal naming convention'
p212
aS'edgar f codd'
p213
aS'storage area network switch'
p214
aS'uat'
p215
aS'im spam'
p216
aS'sarbanes-oxley'
p217
aS'captcha'
p218
aS'java card'
p219
aS'zrtp'
p220
aS'mandatory access control'
p221
aS'jbod (just a bunch of disks or just a bunch of ...'
p222
aS'object storage device'
p223
aS'one-banana problem'
p224
aS'yang'
p225
aS'e form'
p226
aS'i-mode'
p227
aS'ie'
p228
aS'walled garden'
p229
aS'open device identification number'
p230
aS'table of physical constants'
p231
aS'led tv'
p232
aS'jsml'
p233
aS'actionscript'
p234
aS'edge transport server'
p235
aS'gate'
p236
aS'leonardo fibonacci'
p237
aS'malvertisement (malicious advertisement or malv...'
p238
aS'x-on'
p239
aS'gaming'
p240
aS'lan'
p241
aS'abstraction'
p242
aS'access method'
p243
aS'ofssl'
p244
aS'1170'
p245
aS'electronic business xml'
p246
aS'ray tracing'
p247
aS'early adopter'
p248
aS'vaporware'
p249
aS'vector graphics'
p250
aS'v.32'
p251
aS'e.164'
p252
aS'ssd'
p253
aS'5 whys'
p254
aS'integrated digital enhanced network'
p255
aS'a/m squared'
p256
aS'c14n'
p257
aS'basic assembler language or branch-and-link'
p258
aS'image color matching file'
p259
aS'pasv ftp'
p260
aS'julian calendar'
p261
aS'd2d2t'
p262
aS'exchange 2000'
p263
aS'3-d browser'
p264
aS'watchdog timer'
p265
aS'hdtv'
p266
aS'kronos inc.'
p267
aS'i/o contention'
p268
aS'e-commerce'
p269
aS'off the grid'
p270
aS'rational number'
p271
aS'hartree energy'
p272
aS'half life'
p273
aS'd2d2c'
p274
aS'lambda calculus'
p275
aS'e discovery'
p276
aS'key logger'
p277
aS'sales-qualified lead'
p278
aS'calibrated vectored cooling'
p279
aS'xml bomb'
p280
aS'object storage'
p281
aS'zinc whiskers'
p282
aS'wireless application protocol'
p283
aS'jpeg'
p284
aS'v.xx'
p285
aS'pascal'
p286
aS'national electronic disease surveillance system'
p287
aS'lightweight directory interchange format'
p288
aS'10basef'
p289
aS'eavesdropping'
p290
aS'facial recognition'
p291
aS'vitc'
p292
aS'sb 1386'
p293
aS'package manager'
p294
aS'kernel-based virtual machine'
p295
aS'i-spy act -- internet spyware prevention act of...'
p296
aS'geekosphere'
p297
aS'offline address book'
p298
aS'fip'
p299
aS'learn it: the power of the database'
p300
aS'rca connector'
p301
aS'rcp'
p302
aS's4l'
p303
aS'paladion'
p304
aS'nas accelerator'
p305
aS'safesquid'
p306
aS'e ink'
p307
aS'xubuntu'
p308
aS'404'
p309
aS'business application programming interface'
p310
aS'vam'
p311
aS'radiological society of north america'
p312
aS'universal serial bus'
p313
aS'vbns'
p314
aS'fim'
p315
aS'xpath'
p316
aS'10base2'
p317
aS'capacity-optimized transport'
p318
aS'10base5'
p319
aS'high-definition downconverter'
p320
aS'x2'
p321
aS'balanced scorecard (balanced scorecard methodol...'
p322
aS'safe'
p323
aS'big iron'
p324
aS'hard disk drive'
p325
aS'oc-256'
p326
aS'band'
p327
aS'packet-level procedure'
p328
aS'weak password'
p329
aS'learn it: unleashing the power of the database .'
p330
aS'xaas'
p331
aS'basic io system'
p332
aS'hand of thief'
p333
aS'nokia maemo'
p334
aS'office of cyber security and information assura...'
p335
aS'unauthenticated security scan (logged-out secui...'
p336
aS'electronic reader'
p337
aS'one-to-one'
p338
aS'page file'
p339
aS'fast guide to job hunting and career resources'
p340
aS'ifttt'
p341
aS'actionscript cheat sheets'
p342
aS'odbc'
p343
aS'tata consultancy services'
p344
aS'learn it: how spam affects email marketing camp...'
p345
aS'carbon nanotube'
p346
aS'call center schedule adherence'
p347
aS'hardware definitions'
p348
aS'universal asynchronous receiver/transmitter'
p349
aS'saasgrid'
p350
aS'z-wave'
p351
aS'cabinet file'
p352
aS'half-open scanning'
p353
aS'mdf'
p354
aS'nih'
p355
aS'vcommerce'
p356
aS't3'
p357
aS'national committee on vital and health statisti...'
p358
aS'xga2'
p359
aS'ubiquitous sensor network'
p360
aS'variable length subnet mask'
p361
aS'packet-switched'
p362
aS'tdma'
p363
aS'main storage'
p364
aS'factory reset; master reset'
p365
aS'television over ip'
p366
aS'24x'
p367
aS'vb net'
p368
aS'x86'
p369
aS'war dialer'
p370
aS'r/390'
p371
aS'samsung for enterprise'
p372
aS'quality'
p373
aS'jbig2'
p374
aS'nano-storage'
p375
aS'smp'
p376
aS'rd'
p377
aS'neft'
p378
aS'bandwidth test'
p379
aS'hard real-time system'
p380
aS'taleo'
p381
aS'nic'
p382
aS'tape library'
p383
aS'jax ws'
p384
aS'basic i/o system'
p385
aS'xml schema definition'
p386
aS'facebook "fan"'
p387
aS'i2c'
p388
aS'sata express'
p389
aS'i5'
p390
aS'darpanet'
p391
aS'leveraged buyout'
p392
aS'java development kit'
p393
aS'xkeyscore'
p394
aS'office of management and budget'
p395
aS'estimate'
p396
aS'target deduplication'
p397
aS'acrobat'
p398
aS'tags'
p399
aS'jes2'
p400
aS'fast packet technology'
p401
aS'ieee (institute of electrical and electronics e...'
p402
aS'paperwork reduction act'
p403
aS'c3d'
p404
aS'atl'
p405
aS'talkback'
p406
aS'generation 2 vms'
p407
aS'quintessence'
p408
aS'radio charging'
p409
aS'wan optimization'
p410
aS'unix 03'
p411
aS'jitter buffer'
p412
aS'xul'
p413
aS'k/p'
p414
aS'packet switching'
p415
aS'edge router'
p416
aS'microsoft azure'
p417
aS'q.931'
p418
aS'rand'
p419
aS'ibm system z application assist processor'
p420
aS'call detail record'
p421
aS'backup'
p422
aS'oasis (organization for the advancement of stru...'
p423
aS'quad fastethernet'
p424
aS'sales performance incentive fund'
p425
aS'cache memory'
p426
aS'ilink'
p427
aS'g.723.1'
p428
aS'e-mail postage'
p429
aS'knowledge worker'
p430
aS'geostationary satellite'
p431
aS'calorie'
p432
aS'undernet'
p433
aS'satellite radio'
p434
aS'vi improved'
p435
aS'backup and recovery guides and tutorials'
p436
aS'cache thrash'
p437
aS'aaa server'
p438
aS'camelcase'
p439
aS'top'
p440
aS'machine language'
p441
aS'ad hoc analysis'
p442
aS'86-dos'
p443
aS'sales funnel'
p444
aS'e services'
p445
aS'lcl layer'
p446
aS'nanostorage'
p447
aS'icd-10-pcs'
p448
aS'nas filer'
p449
aS'fat client'
p450
aS'pabx'
p451
aS'captive portal'
p452
aS'up converter'
p453
aS'uber geek'
p454
aS'raid 50'
p455
aS'wapi (wlan authentication and privacy infrastru...'
p456
aS'5 terms you need to know before you employ voip'
p457
aS'venice project'
p458
aS'bar coded medication administration'
p459
aS'federal energy regulatory commission'
p460
aS'task bar'
p461
aS'vga card'
p462
aS'near end crosstalk'
p463
aS'yacc'
p464
aS'cable modem'
p465
aS'advanced configuration and power interface'
p466
aS'v-commerce'
p467
aS'vertical market'
p468
aS'dark social'
p469
aS'telestroke services'
p470
aS'java api for xml web services'
p471
aS'extensible forms description language'
p472
aS'iap'
p473
aS'apple picking'
p474
aS'amazon glacier'
p475
aS'saas paas iaas'
p476
aS'hybrid tablet, convertible tablet'
p477
aS'led'
p478
aS'eai'
p479
aS'lbs'
p480
aS'active attack'
p481
aS'rac'
p482
aS'vmware consolidated backup proxy'
p483
aS'range scan'
p484
aS'ram'
p485
aS'xml infoset'
p486
aS'saved state'
p487
aS'calea'
p488
aS'lba'
p489
aS'rat'
p490
aS'ict4d (information and communications technolog...'
p491
aS'national stock exchange'
p492
aS'ras'
p493
aS'unified threat management'
p494
aS'virtual cio'
p495
aS'v/m'
p496
aS'lbo'
p497
aS'same time'
p498
aS'latency'
p499
aS'wave a dead chicken'
p500
aS'aws direct connect'
p501
aS'sony/philips digital interface'
p502
aS'nanocomputer'
p503
aS'marketing automation'
p504
aS'cable tv'
p505
aS'j/direct'
p506
aS'keyboard shortcut'
p507
aS'natural language processing'
p508
aS'z-buffering'
p509
aS'zenoss service dynamics'
p510
aS'national egovernance service delivery gateway'
p511
aS'canonify'
p512
aS'home audio visual'
p513
aS'ebook'
p514
aS'sarbanes oxley act'
p515
aS'ict (information and communications technology ...'
p516
aS'learning path: cyberculture'
p517
aS'parent company'
p518
aS'barter economy'
p519
aS'telecenter'
p520
aS'bsa'
p521
aS'ibm integrated facility for linux'
p522
aS'kilohertz'
p523
aS'natural number'
p524
aS'ieee-cs'
p525
aS'absolute value'
p526
aS'behavioral biometrics'
p527
aS'eclipse platform'
p528
aS'dark backup'
p529
aS'ham radio'
p530
aS'hands-off infrastructure management'
p531
aS'nahit'
p532
aS'2gl'
p533
aS'partition'
p534
aS'm'
aS'ogo'
p535
aS'radio frequency identification'
p536
aS'geothermal cooling'
p537
aS'.cab'
p538
aS'x9'
p539
aS'jbi'
p540
aS'canonization'
p541
aS'access network query protocol'
p542
aS'tm software'
p543
aS'ned'
p544
aS'in managed services'
p545
aS'value added network'
p546
aS'candidate relationship management'
p547
aS'igrp'
p548
aS'ransomware'
p549
aS'national informatics centre'
p550
aS'wall display'
p551
aS'bell communications research'
p552
aS'fiber distributed data interface'
p553
aS'raw spool files'
p554
aS'rad/s'
p555
aS'obliquity'
p556
aS'enterprise application integration'
p557
aS'targeted attack'
p558
aS'z coordinate'
p559
aS'call center terms: glossary'
p560
aS'ocm'
p561
aS'gesture recognition'
p562
aS'icrime'
p563
aS'capex'
p564
aS'vendor neutral archive'
p565
aS'udo'
p566
aS'ocx'
p567
aS'satellite news gathering'
p568
aS'uccnet'
p569
aS'wearables operating system'
p570
aS'ldap'
p571
aS'achromatic'
p572
aS'e cd'
p573
aS'killer app'
p574
aS'kilowatt hour'
p575
aS'abv'
p576
aS'java chip'
p577
aS'fast guide to free it book excerpts'
p578
aS'raised floor'
p579
aS'mac os'
p580
aS'marshalling'
p581
aS'da'
p582
aS'geek'
p583
aS'telecommuter'
p584
aS'p versus np'
p585
aS'fast guide to pandemic planning'
p586
aS'im worm'
p587
aS'fair and accurate credit transactions act'
p588
aS'e-contact center'
p589
aS'user interface markup language'
p590
aS'acm'
p591
aS'laptop'
p592
aS'quality of experience'
p593
aS'e-mail authentication'
p594
aS'x.25'
p595
aS'ietf'
p596
aS'cache poisoning'
p597
aS'e-inclusion'
p598
aS'hdd form factor'
p599
aS'lmof'
p600
aS'ias 6'
p601
aS'baa'
p602
aS'light-emitting diode'
p603
aS'bal'
p604
aS'bam'
p605
aS'legacy operating system'
p606
aS'32-bit ip addressing'
p607
aS'karnaugh map'
p608
aS'manufactured sapphire'
p609
aS'glite'
p610
aS'active directory'
p611
aS'zero day'
p612
aS'sap hana cloud platform'
p613
aS'tb'
p614
aS'360-degree virtual reality'
p615
aS'cross-engineering'
p616
aS'radius'
p617
aS'onc - office of the national coordinator for he...'
p618
aS'nui'
p619
aS'malware throttling'
p620
aS"parkinson's law of triviality"
p621
aS'b2g (business2government or business-to-governm...'
p622
aS't9'
p623
aS'best'
p624
aS'xccdf'
p625
aS'xacml'
p626
aS'v.42'
p627
aS'java 2 platform, enterprise edition'
p628
aS'quality function deployment'
p629
aS'odma (open document management api or applicati...'
p630
aS'0-day'
p631
aS'quantum dot'
p632
aS'ad hoc'
p633
aS'ted codd'
p634
aS'omb'
p635
aS'omg'
p636
aS'zoned-bit recording'
p637
aS'10-gigabit ethernet'
p638
aS'fast infoset'
p639
aS'join.me'
p640
aS'universal windows app'
p641
aS'wh'
p642
aS'extensible business reporting language'
p643
aS'zbr'
p644
aS'nascar slide'
p645
aS'near earth object surveillance satellite'
p646
aS'unit of stress'
p647
aS'xmlhttprequest'
p648
aS'rdram'
p649
aS'sap maxattention'
p650
aS'e. f. codd'
p651
aS'tcpip'
p652
aS'ibm watson supercomputer'
p653
aS'general protection fault'
p654
aS'xerography'
p655
aS'nandroid backup'
p656
aS'berkeley software distribution'
p657
aS'undelete'
p658
aS'ilm'
p659
aS'cable tv or catv'
p660
aS'edgar'
p661
aS'cache server'
p662
aS'feathering'
p663
aS'fast guide to writing resumes and cover letters'
p664
aS'gamer'
p665
aS'underwater remotely operated vehicle'
p666
aS'palm os'
p667
aS'laptop computer'
p668
aS'qubit'
p669
aS'jello'
p670
aS'yagi-uda array'
p671
aS'federated database'
p672
aS'unicast'
p673
aS'x dimension'
p674
aS'janet'
p675
aS'kwh'
p676
aS'pareto principle'
p677
aS'e-discovery'
p678
aS'3d tradeshow'
p679
aS'2nf'
p680
aS'ibm general parallel file system'
p681
aS'wide area information servers'
p682
aS'aws elastic beanstalk'
p683
aS'klez'
p684
aS'802.11b'
p685
aS'key string'
p686
aS'8-level vestigial sideband'
p687
aS'unique selling point'
p688
aS'gigahertz'
p689
aS'san'
p690
aS'h.r. 744'
p691
aS'easypass'
p692
aS'idot'
p693
aS'basis'
p694
aS'magneto-optical drive'
p695
aS'policy analysis of internet routing'
p696
aS'status code'
p697
aS'mssg'
p698
aS'frr'
p699
aS'quad tree'
p700
aS'basic'
p701
aS'2000-year-old computer'
p702
aS'icann (internet corporation for assigned names ...'
p703
aS'data access objects'
p704
aS'learning path: network and web site administration'
p705
aS'baud'
p706
aS'accounting error'
p707
aS'key risk indicator'
p708
aS'watering hole attack'
p709
aS'mail server (mail transfer/transport agent, mta...'
p710
aS'rack-mounted server'
p711
aS'identity management'
p712
aS'jeos'
p713
aS'telnet'
p714
aS'nationwide health information network'
p715
aS's-http'
p716
aS'zope'
p717
aS'de-cloud'
p718
aS'fax polling'
p719
aS'third generation of mobile telephony'
p720
aS'1 to 1 marketing'
p721
aS'jobs act'
p722
aS'sb-1386'
p723
aS'national egovernance plan'
p724
aS'w32.kriz'
p725
aS'rf, rf, orr.f.'
p726
aS'back door'
p727
aS'lean six sigma'
p728
aS'nanochip'
p729
aS'web page authority'
p730
aS'hd-dvd'
p731
aS'fast reference for mathematical symbols'
p732
aS'dashboard'
p733
aS'telerobotics'
p734
aS'palm operating system'
p735
aS'nqf'
p736
aS'nasa solutions for enterprise wide procurement iv'
p737
aS'zipping'
p738
aS'passive solar'
p739
aS'3nf'
p740
aS'veronica'
p741
aS'gigabit'
p742
aS'ultra density optical'
p743
aS'v-model'
p744
aS'five nines or five 9s'
p745
aS'q931'
p746
aS'one to one marketing'
p747
aS'im'
p748
aS'inter-ic bus'
p749
aS'hdtv downconverter'
p750
aS'ic'
p751
aS'on the fly'
p752
aS'64-bit processor'
p753
aS'id'
p754
aS'extensible stylesheet language'
p755
aS'false acceptance'
p756
aS'sap'
p757
aS'generation 2 virtual machines'
p758
aS'zeus trojan'
p759
aS'annoyware'
p760
aS'make'
p761
aS'magnetomotive force'
p762
aS'hcca'
p763
aS'quant'
p764
aS'tebi'
p765
aS'quantum theory'
p766
aS'v.32terbo'
p767
aS'universal molar gas constant'
p768
aS'dhs'
p769
aS'samsung tizen'
p770
aS'enhanced tv binary interchange format'
p771
aS'a.i.'
p772
aS'3d chip'
p773
aS'group id or global index file'
p774
aS'raid'
p775
aS'wbmp'
p776
aS'e-ink'
p777
aS'10-high-day busy period'
p778
aS'japanese emoticons'
p779
aS'hana'
p780
aS'omap'
p781
aS'hang'
p782
aS'learning path: programming'
p783
aS'laser diode'
p784
aS'federal communications commission'
p785
aS'jes3'
p786
aS'a2b'
p787
aS'oa and m'
p788
aS'2002/95/ec'
p789
aS'object linking and embedding'
p790
aS'haiku error message'
p791
aS'learn it: multi-factor authentication basics (m...'
p792
aS'taxpayer identification number'
p793
aS'data center capacity planning'
p794
aS'pareto chart'
p795
aS'leaky feeder'
p796
aS'network unified storage or nus'
p797
aS'720p'
p798
aS'idoc'
p799
aS'call forwarding'
p800
aS'cannibalize'
p801
aS'obfu'
p802
aS'xprl'
p803
aS'business-to-business'
p804
aS'ibm smartcloud'
p805
aS'lcc'
p806
aS'latitude and longitude'
p807
aS'callback messaging'
p808
aS'manual restore point'
p809
aS'k-business'
p810
aS'facta'
p811
aS'fast flux dns'
p812
aS'fast guide to ram'
p813
aS'jre'
p814
aS'quality of service'
p815
aS'net promoter score'
p816
aS'bandwidth'
p817
aS'knujon'
p818
aS'vb'
p819
aS'tarpitting'
p820
aS'managed security service provider'
p821
aS'keystroke identification'
p822
aS'zoo'
p823
aS'best practice'
p824
aS'handshake'
p825
aS'octet'
p826
aS'hal'
p827
aS'ham'
p828
aS'cloud federation'
p829
aS'electronic ticket'
p830
aS'one-time password token'
p831
aS'oebf'
p832
aS'a symphony of lights'
p833
aS'facebook mobile'
p834
aS'8-vsb'
p835
aS'management information base'
p836
aS'near-end crosstalk'
p837
aS'5g'
p838
aS'passphrase'
p839
aS'xnor'
p840
aS'native application'
p841
aS'kanban'
p842
aS'lcp'
p843
aS'if this then that'
p844
aS'backup storage'
p845
aS'capp'
p846
aS'vds'
p847
aS'n s'
p848
aS'lcd'
p849
aS'3pl'
p850
aS'capi'
p851
aS'rip'
p852
aS'java ring'
p853
aS'can spam act of 2003'
p854
aS'fecn becn'
p855
aS'national nanotechnology initiative'
p856
aS'activex'
p857
aS'market leadership'
p858
aS'enhanced 911'
p859
aS'daemon'
p860
aS'vdu'
p861
aS'billions of bits per second'
p862
aS'nasdaq (national association of securities deal...'
p863
aS'acronyms used in online chatting'
p864
aS'v.22bis'
p865
aS'java 2 platform, micro edition'
p866
aS'occlusion'
p867
aS'keystone plug'
p868
aS'knowledge management software'
p869
aS'network driver interface specification'
p870
aS'job control language'
p871
aS'warchalking'
p872
aS'e-waste'
p873
aS'vdd'
p874
aS'unified medical language system'
p875
aS'vdi'
p876
aS'abwatt'
p877
aS'404 error page'
p878
aS'identity card'
p879
aS'laser-switched magnetic storage'
p880
aS'active directory certificate services'
p881
aS's&op;'
p882
aS'universal asynchronous receiver transmitter'
p883
aS'xql'
p884
aS'e-support'
p885
aS'oh'
p886
aS'cdte'
p887
aS'sap business bydesign'
p888
aS'value stream mapping'
p889
aS'vda'
p890
aS'ico'
p891
aS'icm'
p892
aS'laboratory information system'
p893
aS'machine vision'
p894
aS'10base36'
p895
aS'access provider'
p896
aS'gender changer'
p897
aS'learning path: using your computer'
p898
aS'uma'
p899
aS'landscape'
p900
aS'ibm spectrum'
p901
aS'fdisk'
p902
aS'fax group'
p903
aS'icq'
p904
aS'1394'
p905
aS'banner blindness'
p906
aS'ict'
p907
aS'venn diagram'
p908
aS'lazy loading'
p909
aS'360-degree vr'
p910
aS'raid 5+0'
p911
aS'xml pointer language'
p912
aS'ilec'
p913
aS'call center agent'
p914
aS'barcode'
p915
aS'ic-bpms'
p916
aS'hsm'
p917
aS'fast guide to measuring efficiency and producti...'
p918
aS'jughead'
p919
aS'plc'
p920
aS'eaas'
p921
aS'wardriving'
p922
aS'joule'
p923
aS'ted talk'
p924
aS'gas constant'
p925
aS'gartner'
p926
aS'fault-management configuration accounting perfo...'
p927
aS'data-driven documents'
p928
aS'fan-out'
p929
aS'malvertising'
p930
aS'uncompressing'
p931
aS'obi'
p932
aS'100 dollar laptop'
p933
aS'abstract window toolkit'
p934
aS'fcc'
p935
aS'jive software'
p936
aS'generic vlan registration protocol'
p937
aS'j2me'
p938
aS'lead generator'
p939
aS'kbps'
p940
aS'disk striping'
p941
aS'facetime'
p942
aS'ferc'
p943
aS'aha'
p944
aS'open and distance learning'
p945
aS'xywrite'
p946
aS'e-business'
p947
aS'geek games'
p948
aS'e-bomb'
p949
aS'ram drive'
p950
aS'windows 2000'
p951
aS'identity ecosystem'
p952
aS'dashboards'
p953
aS'parsing'
p954
aS'machine data'
p955
aS'usss'
p956
aS'active archive'
p957
aS'sox'
p958
aS'high-definition upconverter'
p959
aS'ole'
p960
aS'wan'
p961
aS'ecmascript (european computer manufacturers ass...'
p962
aS'jdbc'
p963
aS'gis'
p964
aS'fabric'
p965
aS'wag'
p966
aS'pager'
p967
aS'exchange-to-exchange'
p968
aS'wad'
p969
aS'offshoring'
p970
aS'bc set'
p971
aS'gif'
p972
aS'gid'
p973
aS'unsystemic risk'
p974
aS'lamer'
p975
aS'gia'
p976
aS'hadoop cluster'
p977
aS'talent pipeline'
p978
aS'named entity'
p979
aS'berrycasting'
p980
aS'sap quizzes'
p981
aS'vapor cooling'
p982
aS'gii'
p983
aS"ockham's razor"
p984
aS'federal compliance'
p985
aS'amazon elastic block store'
p986
aS'fair information practices'
p987
aS'nat64'
p988
aS'ramac'
p989
aS'keylogger (keystroke logger, key logger, or sys...'
p990
aS'raytracing'
p991
aS'uniform resource identifier'
p992
aS'fat provisioning'
p993
aS'icacls'
p994
aS'rack-mounted'
p995
aS'icmp'
p996
aS'learning path: e-business'
p997
aS'sbir contract'
p998
aS'yard management system'
p999
aS'beginning of life'
p1000
aS'amazon sns'
p1001
aS'id management'
p1002
aS'jboss'
p1003
aS'on-screen display'
p1004
aS'paging'
p1005
aS'gif89a'
p1006
aS'gift economy'
p1007
aS'technical debt'
p1008
aS'palm'
p1009
aS'iisp'
p1010
aS'damps'
p1011
aS'statement on auditing standards no. 70'
p1012
aS'wavelength illustration'
p1013
aS'khz'
p1014
aS'bad block'
p1015
aS'offset quadrature phase-shift keying'
p1016
aS'i&t;'
p1017
aS'icon'
p1018
aS'computing'
p1019
aS'16-bit grayscale'
p1020
aS'backoff'
p1021
aS'java naming and directory interface'
p1022
aS"let's encrypt"
p1023
aS'qix'
p1024
aS'z990'
p1025
aS'random access memory'
p1026
aS'damn small linux'
p1027
aS'hamming code'
p1028
aS'universal authentication'
p1029
aS'hd upconverter'
p1030
aS'hyper-v virtual hard disk'
p1031
aS'leet'
p1032
aS'wdt'
p1033
aS'glacier'
p1034
aS'canonize'
p1035
aS'universal access server'
p1036
aS'nc'
p1037
aS'telemetry'
p1038
aS'majordomo'
p1039
aS'jingle protocol'
p1040
aS'watt'
p1041
aS'leed'
p1042
aS'e-mail discoverability'
p1043
aS'jenkins'
p1044
aS'on-demand computing'
p1045
aS'baseboard management controller'
p1046
aS'sap integration server'
p1047
aS'san-in-a-box'
p1048
aS'jic manufacturing'
p1049
aS'california primary care association'
p1050
aS'learning paths'
p1051
aS'vcdx'
p1052
aS'10 high day busy period'
p1053
aS'kvm'
p1054
aS'advanced business application programming'
p1055
aS'knowledge factor'
p1056
aS'key lifetime'
p1057
aS'call tree'
p1058
aS'kilogram per meter cubed'
p1059
aS'ac 3'
p1060
aS'sql'
p1061
aS'variable'
p1062
aS'r-bgan'
p1063
aS'ncvhs'
p1064
aS'hashing'
p1065
aS'random access method of accounting and control'
p1066
aS'candela per meter squared'
p1067
aS'radioactivity'
p1068
aS'ums'
p1069
aS'70 percent rule for productivity'
p1070
aS'federal deposit insurance corporation'
p1071
aS'yik yak'
p1072
aS'uddi'
p1073
aS'office hoteling'
p1074
aS'wave polarization'
p1075
aS'hard zoning'
p1076
aS'partner program'
p1077
aS'very large scale integration'
p1078
aS'n1'
p1079
aS'data repository'
p1080
aS'v.32bis'
p1081
aS'gigapop'
p1082
aS'sar'
p1083
aS'access control'
p1084
aS'zero-day exploit'
p1085
aS'waf'
p1086
aS'vbi'
p1087
aS'id3'
p1088
aS'national egovernance service delivery gateway (...'
p1089
aS'leaky bucket algorithm'
p1090
aS'bash cheat sheets'
p1091
aS'earth-moon-earth'
p1092
aS'v-rep'
p1093
aS'three dimensions or three-dimensional'
p1094
aS'osd'
p1095
aS'language workbench'
p1096
aS'gbic'
p1097
aS'make whatis.com your home page'
p1098
aS'zone'
p1099
aS'waveform'
p1100
aS'gallium arsenide'
p1101
aS'abvolt'
p1102
aS'0'
aS'gigo'
p1103
aS'hd downconverter'
p1104
aS'jvm'
p1105
aS'1xrtt (single-carrier radio transmission techno...'
p1106
aS'giga'
p1107
aS'raid 2'
p1108
aS'learning guide: roi'
p1109
aS'tcp session hijacking'
p1110
aS'high definition compatible digital'
p1111
aS'telegraph'
p1112
aS't 1'
p1113
aS'raster graphics'
p1114
aS'leet speak (leet, leetspeak, leetspeek, or haks...'
p1115
aS'wcdma'
p1116
aS'amd-k6'
p1117
aS'ad hoc test'
p1118
aS'jdo'
p1119
aS'lean management'
p1120
aS'ics'
p1121
aS'x86-64'
p1122
aS'tablet computer'
p1123
aS'sap learning guides'
p1124
aS'uhdtv'
p1125
aS'icr'
p1126
aS'fault-tolerant'
p1127
aS'knowledge-based authentication'
p1128
aS'access list'
p1129
aS'raid 6'
p1130
aS'object recognition'
p1131
aS'ghostscript'
p1132
aS'joint bi level image experts group'
p1133
aS'samsung gn'
p1134
aS'capability maturity model'
p1135
aS'z object publishing environment'
p1136
aS'onewebday'
p1137
aS'ultrabook'
p1138
aS'vcap'
p1139
aS'raid 5'
p1140
aS'bar graph'
p1141
aS'warm server'
p1142
aS'national television standards committee'
p1143
aS'ghost imaging'
p1144
aS'learning path: computer details'
p1145
aS'national quality forum'
p1146
aS'unsolicited commercial e-mail'
p1147
aS'geolocation data'
p1148
aS'dolby digital'
p1149
aS'40 gigabit ethernet'
p1150
aS'tcp ip'
p1151
aS'question 10'
p1152
aS'nagling'
p1153
aS'pms'
p1154
aS'managed learning environment'
p1155
aS'erx'
p1156
aS'active network'
p1157
aS'becquerel'
p1158
aS'radical innovation'
p1159
aS'vacuum tube'
p1160
aS'fhie'
p1161
aS'rad/s or rad/sec'
p1162
aS'federation of telecommunications engineers of t...'
p1163
aS'ijacking'
p1164
aS'tempest'
p1165
aS'sap hana enterprise cloud'
p1166
aS'ldcm'
p1167
aS'hdfs'
p1168
aS'oc levels'
p1169
aS'legal health record'
p1170
aS'a.f.'
p1171
aS'gallium arsenide field effect transistor'
p1172
aS'c, c# and c++ cheat sheets'
p1173
aS'oled'
p1174
aS'vectored interrupt'
p1175
aS'telepresence'
p1176
aS'federal acquisition regulation'
p1177
aS'kyoto protocol'
p1178
aS'backronym'
p1179
aS'i5 series'
p1180
aS'acpi'
p1181
aS'y/c video'
p1182
aS'national computer security center'
p1183
aS'action plan'
p1184
aS'fault management'
p1185
aS'mac os x lion'
p1186
aS'rados block device'
p1187
aS'galileo'
p1188
aS'wallet share'
p1189
aS'x-ray body scanning'
p1190
aS'bearer independent call control'
p1191
aS'jax-rpc'
p1192
aS'xml pipeline'
p1193
aS'legal discovery'
p1194
aS'100 gigabit ethernet'
p1195
aS'vb.net'
p1196
aS'hba'
p1197
aS'testing your bandwidth'
p1198
aS'g2g'
p1199
aS'waterfall model'
p1200
aS'active matrix display (thin film transistor or ...'
p1201
aS'united states secret service'
p1202
aS'z39.50'
p1203
aS'virtual address extension'
p1204
aS'laserdisc'
p1205
aS'40gbe'
p1206
aS'hacktivism'
p1207
aS'jhtml'
p1208
aS'iana'
p1209
aS'amazon route 53'
p1210
aS'extensible access control markup language'
p1211
aS'narrowcasting'
p1212
aS'java 2 enterprise edition'
p1213
aS'active server page'
p1214
aS'rash'
p1215
aS"beginner's all-purpose symbolic instruction code"
p1216
aS'macro virus'
p1217
aS'sas 70'
p1218
aS'gartner magic quadrants'
p1219
aS'rup'
p1220
aS'xmt'
p1221
aS'uk government connect secure extranet'
p1222
aS'y coordinate'
p1223
aS'abvs'
p1224
aS'rapid application development'
p1225
aS'8-track tape'
p1226
aS'aaaa resource record'
p1227
aS'mss'
p1228
aS'backup and recovery testing'
p1229
aS'msp'
p1230
aS'war chalking'
p1231
aS'p-ink'
p1232
aS'identification chip'
p1233
aS'zone recording'
p1234
aS'idaas'
p1235
aS'unconference'
p1236
aS'capacity-optimized storage'
p1237
aS'extensible hypertext markup language'
p1238
aS'omnidirectional antenna'
p1239
aS'large account reseller'
p1240
aS'teledactyl'
p1241
aS'veepers'
p1242
aS'8 level vestigial sideband'
p1243
aS'nanorobot'
p1244
aS'incumbent local exchange carrier'
p1245
aS'cache coherence'
p1246
aS'tcl/tk'
p1247
aS'sarbanes oxley act section 404'
p1248
aS'tapi'
p1249
aS'sap lumira'
p1250
aS'partner specialization'
p1251
aS'vertical interval time code'
p1252
aS'oop'
p1253
aS'judder'
p1254
aS's/mime (secure multi-purpose internet mail exte...'
p1255
aS'unix 95'
p1256
aS'jad'
p1257
aS'access control facility'
p1258
aS'ibm'
p1259
aS'cap'
p1260
aS'joeing'
p1261
aS'machine learning'
p1262
aS'one-time pad'
p1263
aS'oasis cloud application management for platform...'
p1264
aS'ieee computer society'
p1265
aS'can'
p1266
aS'cam'
p1267
aS'cal'
p1268
aS'cac'
p1269
aS'cab'
p1270
aS'access control list'
p1271
aS'cae'
p1272
aS'cad'
p1273
aS'office open extended markup language'
p1274
aS'x windows'
p1275
aS'u.s. food and drug administration'
p1276
aS'aws cloudformation (amazon web services cloudfo...'
p1277
aS'wan acceleration'
p1278
aS'ubiquitous robotics'
p1279
aS'backslash'
p1280
aS'telecommunications act of 1996'
p1281
aS'fault-management platform'
p1282
aS'talking trojan'
p1283
aS'vbn'
p1284
aS'spm'
p1285
aS'ad tree'
p1286
aS'generation f'
p1287
aS'tar'
p1288
aS'academic analytics'
p1289
aS'calendaring and scheduling consortium'
p1290
aS'base address'
p1291
aS'hardphone'
p1292
aS'jtapi (java telephony application programming i...'
p1293
aS'fpm'
p1294
aS'pass phrase'
p1295
aS'range'
p1296
aS'malvertisement'
p1297
aS'raspberry pi'
p1298
aS'2-in-1 tablet'
p1299
aS'kiosk'
p1300
aS'national identity card'
p1301
aS'xhtml'
p1302
aS'iscsi initiator'
p1303
aS'parameter'
p1304
aS'unstructured data'
p1305
aS'sng'
p1306
aS'nlm'
p1307
aS'absolute truth'
p1308
aS'java online analytical processing'
p1309
aS'leaf-spine architecture'
p1310
aS'acoustic wave'
p1311
aS'active template library'
p1312
aS'extensible messaging and presence protocol'
p1313
aS'rmad'
p1314
aS'mac'
p1315
aS'mae'
p1316
aS'mad'
p1317
aS'telecine'
p1318
aS'camram'
p1319
aS'java virtual machine'
p1320
aS'pareto distribution diagram'
p1321
aS'man'
p1322
aS'can spam'
p1323
aS'oled tv'
p1324
aS'telecommuting'
p1325
aS'octopus'
p1326
aS'abap objects'
p1327
aS'ghz'
p1328
aS'ebpp'
p1329
aS'jitterbit'
p1330
aS'ibm iseries'
p1331
aS'aaa server (authentication, authorization, and ...'
p1332
aS'hardware security module'
p1333
aS'salesforce community cloud'
p1334
aS'raw device mapping'
p1335
aS'on demand mail relay'
p1336
aS'high-density - read only memory'
p1337
aS'watt hour'
p1338
aS'requirements creep or scope creep'
p1339
aS'i spy act internet spyware prevention act of 2005'
p1340
aS'mapi'
p1341
aS'kvm switch'
p1342
aS'10gbase t'
p1343
aS'or continuous improvement'
p1344
aS'vcb proxy'
p1345
aS'keyboard vibration attack'
p1346
aS'canary'
p1347
aS'male connector'
p1348
aS'vertical saas'
p1349
aS'fast guide to acronyms used in manufacturing'
p1350
aS'statistical'
p1351
aS'enhanced data gsm environment'
p1352
aS"or t'is?"
p1353
aS'ieee'
p1354
aS'xccdf (extensible configuration checklist descr...'
p1355
aS'xen'
p1356
aS'sap mobile platform'
p1357
aS'lightweight directory access protocol'
p1358
aS'maps'
p1359
aS'qdos'
p1360
aS'fear uncertainty doubt'
p1361
aS'kriz virus'
p1362
aS'hardware clustering'
p1363
aS'in case of emergency'
p1364
aS'maid'
p1365
aS'jit'
p1366
aS'ntro'
p1367
aS'man page'
p1368
aS'back-pressure sensor'
p1369
aS'yammer'
p1370
aS'backup and recovery quizzes'
p1371
aS'java api for xml-based rpc'
p1372
aS'magnetic field strength'
p1373
aS'e-carrier system'
p1374
aS'n+1 ups'
p1375
aS'tdl-4'
p1376
aS'a-weighted decibels (dba, or dba, or db'
p1377
aS'ultra high-definition tv'
p1378
aS'qhd'
p1379
aS'tailsos'
p1380
aS'abc classification'
p1381
aS'disk-to-disk-to-cloud'
p1382
aS'layering'
p1383
aS'ocsia'
p1384
aS'11th dimension'
p1385
aS'sop'
p1386
aS'sapphire now'
p1387
aS'hancock'
p1388
aS'nbad'
p1389
aS'fc-pga'
p1390
aS't-rex'
p1391
aS'lede'
p1392
aS'qr code'
p1393
aS'sales cycle'
p1394
aS'hard drive overwrite'
p1395
aS'vmware certified advanced professional'
p1396
aS'e2k'
p1397
aS'federal information processing standards'
p1398
aS'nbar'
p1399
aS'ge healthcare'
p1400
aS'fax server'
p1401
aS'internet access provider'
p1402
aS'random access memory digital to analog converter'
p1403
aS'kml'
p1404
aS'nhin'
p1405
aS'hardware vulnerability'
p1406
aS'parallel processing'
p1407
aS'ea'
p1408
aS'ec'
p1409
aS'eb'
p1410
aS'san switch'
p1411
aS'1nf'
p1412
aS'native code'
p1413
aS'e-services'
p1414
aS'kaptoxa'
p1415
aS'call center shrinkage'
p1416
aS'universal mobile telecommunications service'
p1417
aS'wavelength'
p1418
aS'canonicalisation'
p1419
aS'wallpaper'
p1420
aS'hacker'
p1421
aS'u interface'
p1422
aS'quick start glossary: pci dss (payment card ind...'
p1423
aS'e ticket'
p1424
aS'xon xoff'
p1425
aS'qc'
p1426
aS'kar\xc5\x8dshi'
p1427
aS'ebitda'
p1428
aS'landline'
p1429
aS'universal unique identifier'
p1430
aS'gamification'
p1431
aS'parallax'
p1432
aS'1x evolution data optimized'
p1433
aS'negative correlation'
p1434
aS'direct access storage device'
p1435
aS'hci'
p1436
aS'infobahn'
p1437
aS'hadoop data lake'
p1438
aS'e-'
p1439
aS'ibutton'
p1440
aS'one throat to choke'
p1441
aS'java runtime environment'
p1442
aS'1x evolution-data optimized'
p1443
aS'lms'
p1444
aS'garuda'
p1445
aS'table space'
p1446
aS'kibi, mebi, gibi, tebi, pebi, and all that'
p1447
aS'quark'
p1448
aS'zimbra collaboration server'
p1449
aS'oasis'
p1450
aS'orm'
p1451
aS'parent partition'
p1452
aS'e5'
p1453
aS'e4'
p1454
aS'wi-fi'
p1455
aS'e1'
p1456
aS'business / enterprise state transfer'
p1457
aS'e2'
p1458
aS'raster'
p1459
aS'accesschk'
p1460
aS'leadership in energy and environmental design'
p1461
aS'warehouse control system'
p1462
aS'glb act'
p1463
aS'gajshield'
p1464
aS'learn it: software development'
p1465
aS'learning path: wires and cables'
p1466
aS'm payment'
p1467
aS'yum'
p1468
aS'.tel'
p1469
aS'national voluntary laboratory accreditation pro...'
p1470
aS'vbscript'
p1471
aS'abampere'
p1472
aS'be a martian!'
p1473
aS'lambda'
p1474
aS'octal latch'
p1475
aS'xo'
p1476
aS'occupations'
p1477
aS'zippo'
p1478
aS'parser'
p1479
aS'ibm tivoli storage manager'
p1480
aS'vesa'
p1481
aS'telephone company'
p1482
aS'hadoop distributed file system'
p1483
aS'handheld device markup language'
p1484
aS'tech secondary market'
p1485
aS'm-commerce'
p1486
aS'tool command language'
p1487
aS'v.34bis'
p1488
aS'national association of software and services c...'
p1489
aS'salesforce work.com'
p1490
aS'telecom cloud provider'
p1491
aS'iam'
p1492
aS'java within hypertext markup language'
p1493
aS'iao'
p1494
aS'x or xwindows'
p1495
aS'nfts'
p1496
aS'marcomm'
p1497
aS'1x'
p1498
aS'bbm 2.0'
p1499
aS'3d web browser'
p1500
aS'maker movement'
p1501
aS'iab'
p1502
aS'ncfa'
p1503
aS'yagi antenna'
p1504
aS'iax'
p1505
aS'vms'
p1506
aS'iaas'
p1507
aS'fme'
p1508
aS'cable head-end'
p1509
aS'salesforce.com'
p1510
aS'one-armed router'
p1511
aS'ultra wideband'
p1512
aS'fc ip'
p1513
aS'vee model'
p1514
aS'e-prescribing'
p1515
aS'paper battery'
p1516
aS'teletraffic engineering'
p1517
aS'wax'
p1518
aS'failover cluster'
p1519
aS'qualified security assessor'
p1520
aS'techtarget featured topics'
p1521
aS'daily stand-up meeting'
p1522
aS'json query language'
p1523
aS'sap smart data access'
p1524
aS'quad'
p1525
aS'primary account number'
p1526
aS'3g card'
p1527
aS'm-theory'
p1528
aS'owa'
p1529
aS'.pst'
p1530
aS'24x7'
p1531
aS'gps stash hunting'
p1532
aS'josephson tunneling'
p1533
aS'kludge'
p1534
aS'qa/qc'
p1535
aS'jumper setting'
p1536
aS'zettaflops'
p1537
aS'xoff'
p1538
aS'internet information server'
p1539
aS'ibm racetrack memory'
p1540
aS'ldsi'
p1541
aS'nasscom (national association of software and s...'
p1542
aS'zsh'
p1543
aS'electronic voting'
p1544
aS'802.11a'
p1545
aS'pa dss'
p1546
aS'garp vlan registration protocol'
p1547
aS'802.11e'
p1548
aS'802.11d'
p1549
aS'802.11g'
p1550
aS'802.11i'
p1551
aS'802.11h'
p1552
aS'802.11k'
p1553
aS'802.11j'
p1554
aS'802.11m'
p1555
aS'man in the middle'
p1556
aS'802.11n'
p1557
aS'total cost of ownership'
p1558
aS'802.11s'
p1559
aS'sax'
p1560
aS'802.11u'
p1561
aS'h.323'
p1562
aS'mail router'
p1563
aS'sas'
p1564
aS'802.11x'
p1565
aS'nearshore outsourcing'
p1566
aS'abap workbench'
p1567
aS'dasd'
p1568
aS'knowledge base'
p1569
aS'fair use'
p1570
aS'vbs.sst'
p1571
aS'telecom carrier'
p1572
aS'wcs'
p1573
aS'packet-switching'
p1574
aS'machine code'
p1575
aS'massive array of idle disks'
p1576
aS'network socket'
p1577
aS'vectorized'
p1578
aS'universal resource identifier'
p1579
aS'wan interface card'
p1580
aS'ibm tsm'
p1581
aS'wcf'
p1582
aS'lean startup'
p1583
aS'network-attached storage filer'
p1584
aS'handshaking'
p1585
aS'computer-aided engineering'
p1586
aS'jolap'
p1587
aS'fcr'
p1588
aS'java messaging service'
p1589
aS'hash busting'
p1590
aS'in grid computing'
p1591
aS'uk data protection act 1998'
p1592
aS'teleoperation'
p1593
aS'near cdp'
p1594
aS'quadbit'
p1595
aS'battery life'
p1596
aS'rambus dram'
p1597
aS'high altitude long operation'
p1598
aS'pair'
p1599
aS'm commerce'
p1600
aS'canvas fingerprinting'
p1601
aS'fddi'
p1602
aS'national call fee access'
p1603
aS'latex'
p1604
aS'icd-10-cm'
p1605
aS'zbot'
p1606
aS'learning path: basic computer concepts'
p1607
aS'x terminal'
p1608
aS'native advertising'
p1609
aS'4k video'
p1610
aS'gallium nitride'
p1611
aS'picture archiving and communication system'
p1612
aS'legacy storage'
p1613
aS'mri'
p1614
aS'quantitative analyst'
p1615
aS'x11 license'
p1616
aS'salt'
p1617
aS'hmac'
p1618
aS'rackspace fanatical support'
p1619
aS'nlp'
p1620
aS'qos'
p1621
aS'offshore outsourcing: do you speak geek?'
p1622
aS'vmware certified design expert'
p1623
aS'hairpin'
p1624
aS'qox'
p1625
aS'kiosk mode'
p1626
aS'qoe'
p1627
aS'rainbow table'
p1628
aS'joint application development'
p1629
aS'passive cooling'
p1630
aS'gap analysis'
p1631
aS'quantum mirage'
p1632
aS'java 2 platform'
p1633
aS'h2g2'
p1634
aS'xml'
p1635
aS'hkey'
p1636
aS'ratio'
p1637
aS'daas'
p1638
aS'half duplex'
p1639
aS'10baset'
p1640
aS'jolt'
p1641
aS'generalized multiprotocol label switching'
p1642
aS'ram-based solid state drive'
p1643
aS'icmp bug'
p1644
aS'zachman framework'
p1645
aS'key performance indicator'
p1646
aS'learning path: internet ideas and issues'
p1647
aS'password blacklist'
p1648
aS'24 hours a day, 7 days a week'
p1649
aS'radiant energy'
p1650
aS'electronic business'
p1651
aS'value chain'
p1652
aS"'tis"
p1653
aS'native app'
p1654
aS'ldap injection'
p1655
aS'udma'
p1656
aS'100 laptop'
p1657
aS'federal rules of civil procedure'
p1658
aS'baby bluetooth'
p1659
aS'extensible access method'
p1660
aS'ad-hoc network'
p1661
aS'vcalendar'
p1662
aS'fair and reasonable price'
p1663
aS'keiretsu'
p1664
aS'unified messaging'
p1665
aS'ultra dma33'
p1666
aS'wearable computer'
p1667
aS'capacitive touch screen'
p1668
aS'cablelabs certified cable modems'
p1669
aS'led-backlight lcd television'
p1670
aS'c++'
p1671
aS'xeon'
p1672
aS'pa-dss (payment application data security stand...'
p1673
aS"kirchhoff's laws for current and voltage"
p1674
aS'qsig'
p1675
aS'abandoned call'
p1676
aS'eddress'
p1677
aS'mail server'
p1678
aS'object storage glossary - words2go'
p1679
aS'tabbed document interface'
p1680
aS'poc'
p1681
aS'kernel'
p1682
aS'facebook insights'
p1683
aS'offset printing'
p1684
aS'96-minute rule'
p1685
aS'jedec sdram'
p1686
aS'#!'
p1687
aS'keyboard'
p1688
aS'san routing'
p1689
aS'action item'
p1690
aS'3270'
p1691
aS'javabeans'
p1692
aS'samsung galaxy note'
p1693
aS'back-end'
p1694
aS'j#'
p1695
aS'yotta'
p1696
aS'palette'
p1697
aS'managed bean'
p1698
aS'e bomb'
p1699
aS'24/7'
p1700
aS'genetic engineering'
p1701
aS'lead scoring'
p1702
aS'1284.4'
p1703
aS'international callback'
p1704
aS'apple attachment unit interface'
p1705
aS'sable'
p1706
aS'darpa'
p1707
aS'gnu image manipulation program'
p1708
aS'ui'
p1709
aS'gigabit wi-fi'
p1710
aS'mac layer'
p1711
aS'internet control message protocol'
p1712
aS'jumper'
p1713
aS'odbms'
p1714
aS'sapphire'
p1715
aS'universal search'
p1716
aS'e-cycling'
p1717
aS'mail server program'
p1718
aS'universal set'
p1719
aS'fairplay'
p1720
aS'jumper cable'
p1721
aS'radius (remote authentication dial-in user serv...'
p1722
aS'callxml'
p1723
aS'9000'
p1724
aS'ucaas'
p1725
aS'caas'
p1726
aS'access log'
p1727
aS'passive scanning'
p1728
aS'fastrak'
p1729
aS'sap business suite'
p1730
aS'uk identity cards act'
p1731
aS'jfc'
p1732
aS'g.lite'
p1733
aS'java script'
p1734
aS'false rejection'
p1735
aS'national association of securities dealers auto...'
p1736
aS'telestroke'
p1737
aS'telephony application program interface'
p1738
aS'markets in financial instruments directive'
p1739
aS'p2v'
p1740
aS'uc'
p1741
aS'nasa solutions for enterprise-wide procurement iv'
p1742
aS'e-government'
p1743
aS'ntsc'
p1744
aS'random access memory digital-to-analog converter'
p1745
aS'rashport'
p1746
aS'nano'
p1747
aS'v2p'
p1748
aS'jitter'
p1749
aS'national library of medicine'
p1750
aS'wait state'
p1751
aS'wideband code-division multiple access'
p1752
aS'vertical solutions provider'
p1753
aS'b corporation'
p1754
aS'pon'
p1755
aS'xing distributed media architecture'
p1756
aS'parameter tampering'
p1757
aS'icewarp'
p1758
aS'3000'
p1759
aS'ecpa'
p1760
aS'ravmone virus'
p1761
aS'jit manufacturing'
p1762
aS't sql'
p1763
aS'nanomedicine'
p1764
aS'accelerometer'
p1765
aS'occupational safety and health administration (...'
p1766
aS'java runtime'
p1767
aS'nanocrystal'
p1768
aS'wearables security'
p1769
aS'4-g'
p1770
aS'java foundation classes'
p1771
aS'unified communications and collaboration'
p1772
aS'sap solution manager'
p1773
aS'fast guide to byox'
p1774
aS'24/7 customer or [24]7 inc'
p1775
aS'bmc'
p1776
aS'qsa'
p1777
aS'occupancy'
p1778
aS'packet loss concealment'
p1779
aS'common application programming interface'
p1780
aS'8 vsb'
p1781
aS'rankbrain'
p1782
aS'kiss principle'
p1783
aS'techstat accountability sessions'
p1784
aS'e-recruiting'
p1785
aS'bms'
p1786
aS'gigabit interface converter'
p1787
aS'xo-i'
p1788
aS'bare metal restore'
p1789
aS'hashtag'
p1790
aS'i18n'
p1791
aS'baseband'
p1792
aS'e-reader'
p1793
aS'job cost accounting'
p1794
aS'i/o blender effect'
p1795
aS'npiv'
p1796
aS'casl'
p1797
aS'or marchitecture'
p1798
aS'nato off-the-shelf'
p1799
aS'hdx'
p1800
aS'balun'
p1801
aS'hdd'
p1802
aS'universal adsl'
p1803
aS'rack mounted server'
p1804
aS'50x'
p1805
aS'national security agency'
p1806
aS'federal information security management act'
p1807
aS'.ogg'
p1808
aS'w32.kriz.dr'
p1809
aS'uhf'
p1810
aS'uia'
p1811
aS'pages per minute'
p1812
aS'oledb'
p1813
aS'extended graphics array'
p1814
aS'nano-emissive display'
p1815
aS'sasid'
p1816
aS'un laptop'
p1817
aS'universal description discovery and integration'
p1818
aS'mql'
p1819
aS'wave number'
p1820
aS'parse'
p1821
aS'telephony'
p1822
aS'java authentication and authorization service (...'
p1823
aS'w32/rjump'
p1824
aS'or plug'
p1825
aS'call control'
p1826
aS'ray casting'
p1827
aS'sas ssd'
p1828
aS'george boole'
p1829
aS'batch file'
p1830
aS'network data management protocol'
p1831
aS'par'
p1832
aS'oneid'
p1833
aS'l10n'
p1834
aS'bar code reader'
p1835
aS'telepathology'
p1836
aS'oc-192'
p1837
aS'd vhs'
p1838
aS's'
aS'x and y coordinates'
p1839
aS'facebook page'
p1840
aS'gdmo'
p1841
aS'transact-sql'
p1842
aS'gigabit ethernet'
p1843
aS'pal'
p1844
aS'pam'
p1845
aS'pan'
p1846
aS'jailbreaking'
p1847
aS'genetic programming'
p1848
aS'national population register'
p1849
aS'inverse mapping or screen order'
p1850
aS'knowledge warehouse'
p1851
aS'nac'
p1852
aS'8a firm'
p1853
aS'kelvin'
p1854
aS'oid'
p1855
aS'nsa'
p1856
aS'warez'
p1857
aS'sap fiori'
p1858
aS'waveguide'
p1859
aS'facebook connect'
p1860
aS'odin (open data center with an interoperable ne...'
p1861
aS'question 6'
p1862
aS'l2rm'
p1863
aS'question 4'
p1864
aS'question 5'
p1865
aS'question 2'
p1866
aS'question 3'
p1867
aS'raster image processor'
p1868
aS'question 1'
p1869
aS'key chain'
p1870
aS'language-oriented programming'
p1871
aS'macro'
p1872
aS'markup'
p1873
aS'time division multiple access'
p1874
aS'java database connectivity'
p1875
aS'iisp (institute of information security profess...'
p1876
aS'bot'
p1877
aS'team collaboration'
p1878
aS'sap high-performance analytic appliance'
p1879
aS'joystick'
p1880
aS'u.s. navy purchasing abbreviations and acronyms'
p1881
aS'microsoft intune'
p1882
aS'nanosatellite'
p1883
aS'99.999'
p1884
aS'fc/ip'
p1885
aS'xenmobile mail manager'
p1886
aS'leadership skills'
p1887
aS'yellowdog updater modified'
p1888
aS'julian date'
p1889
aS'fast guide to it humor'
p1890
aS'calconnect'
p1891
aS'i/o'
p1892
aS'legacy platform'
p1893
aS'type i error'
p1894
aS'a esu'
p1895
aS'unicode'
p1896
aS'kilo'
p1897
aS'vamp'
p1898
aS'ucs'
p1899
aS'parlay'
p1900
aS'i and t'
p1901
aS'v2v'
p1902
aS'package manager or package management system'
p1903
aS'tacacs+'
p1904
aS'universal disk format'
p1905
aS'samba'
p1906
aS'nas'
p1907
aS'narrowband'
p1908
aS'cache algorithm'
p1909
aS'd3.js'
p1910
aS'frequently-asked questions'
p1911
aS'paas'
p1912
aS"42 (h2g2, meaning of life, the hitchhiker's gui..."
p1913
aS'e f codd'
p1914
aS'x-on/x-off or xon/xoff'
p1915
aS'unc'
p1916
aS'proactive provider participation for p2p'
p1917
aS'bandpass filter'
p1918
aS'w cdma'
p1919
aS'ndmp'
p1920
aS'zulu'
p1921
aS'packet order correction'
p1922
aS'amazon ses'
p1923
aS'harmonic'
p1924
aS'saas bi'
p1925
aS'iht2'
p1926
aS'rasterized'
p1927
aS'nanogenerator'
p1928
aS'pisano'
p1929
aS'unified field theory or theory of everything'
p1930
aS'darc'
p1931
aS'acf2 or ca-acf2'
p1932
aS'ediscovery'
p1933
aS'jndi'
p1934
aS'mrp ii'
p1935
aS'xtacacs'
p1936
aS'wbt'
p1937
aS'.shtml'
p1938
aS'telecommunication standardization sector'
p1939
aS'active directory domain'
p1940
aS'knowbot'
p1941
aS'kilogram'
p1942
aS'ocw'
p1943
aS'automatic coin telephone system'
p1944
aS'uce'
p1945
aS'corporate average data center efficiency'
p1946
aS'talk time'
p1947
aS'four-dimensional printing'
p1948
aS'xhtml cheatsheet'
p1949
aS't'
aS'wdm'
p1950
aS'malvertizement'
p1951
aS'fcip'
p1952
aS"beginner's all purpose symbolic instruction code"
p1953
aS'malware testing'
p1954
aS'wbi'
p1955
aS'page authority'
p1956
aS'venture capital'
p1957
aS'federal financial institutions examination council'
p1958
aS'bait and switch'
p1959
aS'zigbee'
p1960
aS'fast ethernet'
p1961
aS'x server'
p1962
aS'business2consumer or business-to-consumer'
p1963
aS'vannevar bush'
p1964
aS'uninterruptible power supply'
p1965
aS'vendor management system'
p1966
aS'nanometer'
p1967
aS'magneto-optical'
p1968
aS'3bl'
p1969
aS'e3000'
p1970
aS'kmd'
p1971
aS'xing'
p1972
aS'od computing'
p1973
aS'a vacuum'
p1974
aS'fasab (federal accounting standards advisory bo...'
p1975
aS'unsolicited commercial email'
p1976
aS'negative acknowledgement'
p1977
aS'queries-per-second'
p1978
aS'kernel samepage merging'
p1979
aS'.vi'
p1980
aS'verichip'
p1981
aS'badbios'
p1982
aS'java business integration'
p1983
aS'911'
p1984
aS'backlink'
p1985
aS'joint electron device engineering council synch...'
p1986
aS'ray-tracing'
p1987
aS'mmis'
p1988
aS'2600'
p1989
aS'windows nt'
p1990
aS'tdm'
p1991
aS"leonardo da vinci's car"
p1992
aS'qnx'
p1993
aS'1000base-t'
p1994
aS'tdd'
p1995
aS'one-time password'
p1996
aS'fedramp 3pao'
p1997
aS'leadership'
p1998
aS'rapid prototyping'
p1999
aS'zotob'
p2000
aS'fibre channel over ethernet'
p2001
aS'junk e-mail'
p2002
aS'e business'
p2003
aS'wares'
p2004
aS'rdbms'
p2005
aS'passive sensor'
p2006
aS'war driving'
p2007
aS'dark storage'
p2008
aS'ok'
p2009
aS'acd'
p2010
aS'ack'
p2011
aS'amazon ebs'
p2012
aS'ach'
p2013
aS'aco'
p2014
aS'active directory federation services (ad federa...'
p2015
aS'acl'
p2016
aS'acr'
p2017
aS'vendor independent messaging'
p2018
aS'val it'
p2019
aS'on screen display'
p2020
aS'act'
p2021
aS'federal desktop core configuration'
p2022
aS'ultra-mobile personal computer'
p2023
aS'electronic prescribing'
p2024
aS'tape'
p2025
aS'vi'
p2026
aS'kvp'
p2027
aS'serial-attached scsi solid-state drive'
p2028
aS'network based application recognition'
p2029
aS'vertical blanking interval'
p2030
aS'h.r.5744'
p2031
aS'e-thrombosis'
p2032
aS'high bit-rate digital subscriber line'
p2033
aS'garp'
p2034
aS'cmts'
p2035
aS'fast guide to collaborative software'
p2036
aS'10base-f'
p2037
aS'jigsaw'
p2038
aS'telemedicine'
p2039
aS'm-payment'
p2040
aS'tcp offload engine'
p2041
aS'r3'
p2042
aS'lop'
p2043
aS'x.400'
p2044
aS'beacon probing'
p2045
aS'10base-t'
p2046
aS'john von neumann'
p2047
aS'actuator'
p2048
aS'zoetrope'
p2049
aS'hd up converter'
p2050
aS'burst extended data output dram'
p2051
aS'napster'
p2052
aS'quagga'
p2053
aS'unified field theory'
p2054
aS'video home system'
p2055
aS'unlicensed mobile access'
p2056
aS'hd-rom'
p2057
aS'on-demand mail relay'
p2058
aS'national automated clearing house association'
p2059
aS'nao project'
p2060
aS'gibi'
p2061
aS'yc video'
p2062
aS'vanity uniform resource locator'
p2063
aS'taskbar'
p2064
aS'xga'
p2065
aS'learning path: well-known standards and organiz...'
p2066
aS'xpointer'
p2067
aS'tahoe-lafs'
p2068
aS'false rejection rate'
p2069
aS'facebook group'
p2070
aS'leaky bucket'
p2071
aS'vhs'
p2072
aS'mapuccino'
p2073
aS'10base-2'
p2074
aS'faraday cage'
p2075
aS'vhe'
p2076
aS'vhd'
p2077
aS'kb or kbyte*'
p2078
aS'third-party logistics'
p2079
aS'law of averages'
p2080
aS'rca video'
p2081
aS'universal mobile telecommunications system'
p2082
aS'aa'
p2083
aS'b-channel'
p2084
aS'backward explicit congestion notification'
p2085
aS'oltp'
p2086
aS'backup and recovery: do you speak geek?'
p2087
aS'uid'
p2088
aS'active man-in-the-middle attack'
p2089
aS'jaql'
p2090
aS"leonardo's car"
p2091
aS'yet another compiler compiler'
p2092
aS'al'
p2093
aS'nagios'
p2094
aS'xga and xga-2'
p2095
aS'key station'
p2096
aS'geocache'
p2097
aS'aces'
p2098
aS'nanofabrication'
p2099
aS'hdsl'
p2100
aS'identity of things'
p2101
aS'ice'
p2102
aS't-1'
p2103
aS'yellowdog updater, modified'
p2104
aS'unsystematic risk'
p2105
aS'beaming'
p2106
aS'i2c bus'
p2107
aS'igp'
p2108
aS'learn it: malware'
p2109
aS'fast guide to storage technologies'
p2110
aS'kbyte'
p2111
aS'near continuous data protection'
p2112
aS'capwap (control and provisioning of wireless ac...'
p2113
aS'gigabit point of presence'
p2114
aS'telco'
p2115
aS'vee-model'
p2116
aS'ebxml'
p2117
aS'3-d'
p2118
aS'utm'
p2119
aS'canonicalization'
p2120
aS'packet level procedure'
p2121
aS'handheld keyboard'
p2122
aS'internet fibre channel protocol'
p2123
aS"brewer's theorem"
p2124
aS'xml namespace'
p2125
aS'a)'
p2126
aS'e-procurement'
p2127
aS'a+'
p2128
aS'leadership traits'
p2129
aS'100gbe'
p2130
aS'vp'
p2131
aS'national health information infrastructure'
p2132
aS'value from it investments'
p2133
aS'lead-to-revenue management'
p2134
aS'unsolicited bulk email'
p2135
aS'microsoft outlook 2013'
p2136
aS'n-tier'
p2137
aS'ultra extended graphics array'
p2138
aS'or marcomm'
p2139
aS'benefit corporation'
p2140
aS'edgar f. codd'
p2141
aS'cpf'
p2142
aS'wayback machine'
p2143
aS'validator'
p2144
aS'u'
aS'keyboard video mouse switch'
p2145
aS'ibm gpfs'
p2146
aS'sap integration adapter'
p2147
aS'internet commerce provider'
p2148
aS'gigabit point-of-presence'
p2149
aS'agp'
p2150
aS'packet shaping'
p2151
aS'versioning'
p2152
aS'saas on demand'
p2153
aS'bapi'
p2154
aS'sacd'
p2155
aS'human-computer interaction'
p2156
aS'zoned bit recording'
p2157
aS'hardware load balancing device'
p2158
aS'e-outsourcing'
p2159
aS'ecc (error correction code or error checking an...'
p2160
aS'radiation shield'
p2161
aS'accessability'
p2162
aS'java server page'
p2163
aS'laptops for children'
p2164
aS'vdt'
p2165
aS'handie talkie'
p2166
aS'fault tolerance'
p2167
aS'w3c log'
p2168
aS'learning guide: spyware'
p2169
aS'wbadmin'
p2170
aS'orb'
p2171
aS'hard disk drive form factor'
p2172
aS'wms'
p2173
aS'keyphone'
p2174
aS'vendor management office'
p2175
aS'macro instruction'
p2176
aS'tarball'
p2177
aS'national information assurance partnership'
p2178
aS'systems application architecture'
p2179
aS'raid_adg'
p2180
aS'1080p'
p2181
aS'ra'
p2182
aS'fax'
p2183
aS'journaling file system'
p2184
aS'unified messaging server'
p2185
aS'far'
p2186
aS'sap design studio'
p2187
aS'temporal key integrity protocol'
p2188
aS'faq'
p2189
aS'unix-to-unix copy protocol'
p2190
aS'fat'
p2191
aS'zero client'
p2192
aS'icann'
p2193
aS'mps'
p2194
aS'saas erp'
p2195
aS'very high density cable interconnect'
p2196
aS'lady byron'
p2197
aS'ibm workplace'
p2198
aS'ultra high definition video'
p2199
aS'general ledger'
p2200
aS'video cd or video compact disc'
p2201
aS'acoustic coupler'
p2202
aS"campbell's law"
p2203
aS'cable'
p2204
aS'jaguar'
p2205
aS'george simon ohm'
p2206
aS'safari'
p2207
aS'mapreduce'
p2208
aS't1'
p2209
aS'market culture'
p2210
aS'sap exchange infrastructure'
p2211
aS'xp'
p2212
aS'vanilla'
p2213
aS'abandonware'
p2214
aS'capacity sprawl'
p2215
aS'jdbc connector'
p2216
aS'haas'
p2217
aS'ted'
p2218
aS'zoning'
p2219
aS'zero'
p2220
aS'e mail postage'
p2221
aS'san file system'
p2222
aS'10hd busy period'
p2223
aS'query'
p2224
aS'batch processing'
p2225
aS'nba'
p2226
aS'very long instruction word'
p2227
aS'3-d chip'
p2228
aS'canonical'
p2229
aS'aba'
p2230
aS'abc'
p2231
aS'xor'
p2232
aS'abf'
p2233
aS'abh'
p2234
aS'v.22'
p2235
aS'jdbc driver'
p2236
aS'nand'
p2237
aS'abs'
p2238
aS'1xrtt'
p2239
aS'abw'
p2240
aS'xon'
p2241
aS'nas enclosure'
p2242
aS's/pdif'
p2243
aS'oc-48'
p2244
aS'x-engineering'
p2245
aS'hash'
p2246
aS'vendor risk management'
p2247
aS'5gl'
p2248
aS'general architecture for text engineering'
p2249
aS'answers'
p2250
aS'cadmium telluride'
p2251
aS'xsl transformations'
p2252
aS'candidate experience'
p2253
aS'korn shell'
p2254
aS'fips'
p2255
aS'capacitor'
p2256
aS'satellite internet connection'
p2257
aS'b2g'
p2258
aS'b2e'
p2259
aS'fan-in'
p2260
aS'b2c'
p2261
aS'b2b'
p2262
aS'access time'
p2263
aS'business2employee or business-to-employee'
p2264
aS'q signaling'
p2265
aS'jikes'
p2266
aS'false positive'
p2267
aS'e-brokerage'
p2268
aS'jax-ws'
p2269
aS'nanotube antenna'
p2270
aS'genetic modification'
p2271
aS'safe mode'
p2272
aS'v.34'
p2273
aS'bcdr'
p2274
aS'halloween: do you speak geek?'
p2275
aS'vertical portal'
p2276
aS'camcorder'
p2277
aS'maintenance management information system'
p2278
aS'u.k. data protection act 1998'
p2279
aS'java cryptography extension'
p2280
aS'digital-advanced mobile phone service'
p2281
aS'local exchange carrier'
p2282
aS'generic top-level domain name'
p2283
aS'main memory'
p2284
aS'layer'
p2285
aS'vim'
p2286
aS'glitch'
p2287
aS'vc'
p2288
aS'ha storage'
p2289
aS'object id'
p2290
aS'hard drive shredder'
p2291
aS'ab w'
p2292
aS'p/e cycle'
p2293
aS'gaas'
p2294
aS'vlsm'
p2295
aS'gaap'
p2296
aS'icp'
p2297
aS'original equipment manufacturer'
p2298
aS'icm file'
p2299
aS'zone-bit recording'
p2300
aS'wasc'
p2301
aS'generic access network'
p2302
aS'ole db (oledb or object linking and embedding d...'
p2303
aS'bedo dram'
p2304
aS'ola'
p2305
aS'zoomed video port'
p2306
aS'integrated drive electronics'
p2307
aS'8-bit grayscale'
p2308
aS'sametime'
p2309
aS'24 hours a day'
p2310
aS'tcpdump'
p2311
aS'hd dvd'
p2312
aS'weave'
p2313
aS'p ram'
p2314
aS'san/nas convergence'
p2315
aS'10gbase-t'
p2316
aS'leed  (leadership in energy and environmental d...'
p2317
aS'cacs'
p2318
aS'wasp'
p2319
aS'near field communication'
p2320
aS'packet writing'
p2321
aS'e-cd'
p2322
aS'vi3'
p2323
aS'prm'
p2324
aS'backward compatible'
p2325
aS'value analysis'
p2326
aS'udma or ultra dma/33'
p2327
aS'bikeshedding'
p2328
aS'fairphone'
p2329
aS'rain (redundant/reliable array of inexpensive/i...'
p2330
aS'variable manipulation'
p2331
aS'object linking and embedding database'
p2332
aS'ict4d'
p2333
aS'a programming language'
p2334
aS'safeweb'
p2335
aS'jdk'
p2336
aS'tacacs'
p2337
aS'h/m'
p2338
aS'near-continuous data protection'
p2339
aS'nas gateway'
p2340
aS'ac-3'
p2341
aS'jamcracker'
p2342
aS'page description language'
p2343
aS'ieee 1284.4'
p2344
aS'ad forest'
p2345
aS'named pipe'
p2346
aS'unified presence management'
p2347
aS'lean production'
p2348
aS'key fob'
p2349
aS'xfdl'
p2350
aS'packet filter'
p2351
aS'manufacturing details'
p2352
aS'job scheduler'
p2353
aS'jumper block'
p2354
aS'wallet'
p2355
aS'sap afaria'
p2356
aS'w-cdma'
p2357
aS'learning guides and tutorials'
p2358
aS'very high-speed backbone network service'
p2359
aS'partner'
p2360
aS'canary testing'
p2361
aS'accelerated graphics port'
p2362
aS'offset lithography'
p2363
aS"parkinson's law"
p2364
aS'email address'
p2365
aS'jack kilby'
p2366
aS'electronic retailing'
p2367
aS'basel iii'
p2368
aS'hash function'
p2369
aS'java authentication and authorization service'
p2370
aS'fecn/becn (forward explicit congestion notifica...'
p2371
aS'acts'
p2372
aS'value-added reseller'
p2373
aS'electronic services'
p2374
aS'mapr'
p2375
aS'e2e'
p2376
aS'quantum computer'
p2377
aS'c sharp'
p2378
aS'acta'
p2379
aS'r/3 repository'
p2380
aS'e-mail extractor'
p2381
aS'tcp/ip (transmission control protocol/internet ...'
p2382
aS'e-signature'
p2383
aS'fp'
p2384
aS'pap'
p2385
aS'okay'
p2386
aS'high-definition multimedia interface'
p2387
aS'hardy heron'
p2388
aS'active man in the middle attack'
p2389
aS'jargon file'
p2390
aS'gasb'
p2391
aS'telemetrics'
p2392
aS'rbac'
p2393
aS'i-net'
p2394
aS'fc'
p2395
aS'additive manufacturing'
p2396
aS'tcpman'
p2397
aS'i5/os'
p2398
aS'l1 and l2'
p2399
aS'baxter industrial robot'
p2400
aS'fi'
p2401
aS'government cloud'
p2402
aS'zero administration'
p2403
aS'digital video home system'
p2404
aS'failback'
p2405
aS'td scdma'
p2406
aS'a'
aS'very large-scale integration'
p2407
aS'github'
p2408
aS'lhc'
p2409
aS'job entry subsystem'
p2410
aS'k-12'
p2411
aS'saml'
p2412
aS'wav'
p2413
aS'fatdb'
p2414
aS'unique user'
p2415
aS'callback'
p2416
aS'mantrap'
p2417
aS'value proposition'
p2418
aS'telecommunication standardization sector of the...'
p2419
aS'unified communications'
p2420
aS'quadrature amplitude modulation'
p2421
aS'learning path: strange or interesting terms'
p2422
aS'nanite'
p2423
aS'acf2'
p2424
aS'capture board'
p2425
aS'taxonomy'
p2426
aS'leetspeak'
p2427
aS'network vulnerability scanning'
p2428
aS'bicc'
p2429
aS'radar'
p2430
aS'facebook event'
p2431
aS'vlsi'
p2432
aS'learning path: basic network concepts'
p2433
aS'temperature, standard'
p2434
aS'capital expenditure'
p2435
aS'hardware-as-a-service'
p2436
aS'batch job'
p2437
aS'bank identifier code'
p2438
aS'hard drive overwriter'
p2439
aS'tempest-shielding'
p2440
aS'e-filing'
p2441
aS's http'
p2442
aS'taas'
p2443
aS'handheld'
p2444
aS'e&m;'
p2445
aS'vertical scalability'
p2446
aS'ibm roadrunner'
p2447
aS'ibm lotus instant messaging & web conferencing'
p2448
aS'sata 2'
p2449
aS'802.11ad'
p2450
aS'verb / predicate'
p2451
aS'verizon data breach investigations report'
p2452
aS'802.11ac'
p2453
aS'tacacs (terminal access controller access contr...'
p2454
aS'lan server'
p2455
aS'sap data services'
p2456
aS'up-sell'
p2457
aS'microsoft windows defender'
p2458
aS'e-score'
p2459
aS'magnetic field'
p2460
aS'barcode data'
p2461
aS'3-d scanner'
p2462
aS'w32 duqu'
p2463
aS'safe harbor'
p2464
aS'phase-change liquid exchange'
p2465
aS'hackathon'
p2466
aS's.2691'
p2467
aS'electronic document management'
p2468
aS'e-tailing'
p2469
aS'ohnosecond'
p2470
aS'abacus'
p2471
aS'odin'
p2472
aS'malware: glossary'
p2473
aS'data modeling language'
p2474
aS'online certificate status protocol'
p2475
aS'vendor managed inventory'
p2476
aS'near-line storage'
p2477
aS'2x'
p2478
aS'backward compatibility'
p2479
aS'random numbers'
p2480
aS'feature creep'
p2481
aS'packet analyzer'
p2482
aS'undeleting'
p2483
aS'zbt'
p2484
aS'radian'
p2485
aS'passive reconnaissance'
p2486
aS'ifl'
p2487
aS'va'
p2488
aS'fan in'
p2489
aS'rainmaker'
p2490
aS'mail transfer agent'
p2491
aS'pagefile'
p2492
aS'iden'
p2493
aS'sarbanes-oxley act section 404'
p2494
aS'nhs'
p2495
aS'accelerator'
p2496
aS'federal information security management act (fi...'
p2497
aS'knowledge management'
p2498
aS'idef'
p2499
aS'p equals np'
p2500
aS'idea'
p2501
aS'sap hana app center'
p2502
aS'waving a dead chicken'
p2503
aS'kilobits per second'
p2504
aS'unikernel'
p2505
aS'quantum'
p2506
aS'3d mouse'
p2507
aS'basic assembler language'
p2508
aS'e-paper'
p2509
aS'technical office protocol'
p2510
aS'wap'
p2511
aS'negative acknowledgment or not acknowledged'
p2512
aS'universal constructor'
p2513
aS'xwindows'
p2514
aS'negawatt'
p2515
aS'quadruple-play network'
p2516
aS'e signature bill'
p2517
aS'beamforming'
p2518
aS'xrml'
p2519
aS'pass the hash attack'
p2520
aS'udf'
p2521
aS'otp token'
p2522
aS'offline'
p2523
aS'kubuntu'
p2524
aS'uidai'
p2525
aS'sbr'
p2526
aS'java 2 enterprise ed'
p2527
aS'asp'
p2528
aS'capacity optimization'
p2529
aS'windows assigned access'
p2530
aS'managed storage'
p2531
aS'same origin policy'
p2532
aS'802.16a'
p2533
aS'wan optimization vocabulary quiz'
p2534
aS'802.16c'
p2535
aS'mms'
p2536
aS'gigaflop'
p2537
aS'sbc'
p2538
aS'zap'
p2539
aS'teen buzz'
p2540
aS'java message service'
p2541
aS'katmai'
p2542
aS'leet speak'
p2543
aS'zune'
p2544
aS'bash'
p2545
aS'temperature'
p2546
aS'gig economy'
p2547
aS'landesk client manager'
p2548
aS'manufacturing operation management'
p2549
aS'hd down converter'
p2550
aS'geotagging'
p2551
aS'e-zpass'
p2552
aS'vhf'
p2553
aS'videocassette recorder'
p2554
aS'sales force automation software'
p2555
aS'e-commerce hosting'
p2556
aS'fcoe'
p2557
aS'w'
aS'fast page mode dram'
p2558
aS'n00b'
p2559
aS'take off'
p2560
aS'odx'
p2561
aS'mail bomb'
p2562
aS'question 8'
p2563
aS'backup robot'
p2564
aS'internet inter-orb protocol'
p2565
aS'niap'
p2566
aS'k/p or key station'
p2567
aS'oersted'
p2568
aS'xenmobile device manager'
p2569
aS'abnormal end'
p2570
aS'upconverter'
p2571
aS'tech support phone scam'
p2572
aS'cade'
p2573
aS'question 7'
p2574
aS'nanobiomechanics'
p2575
aS'jabber'
p2576
aS't-sql'
p2577
aS'magnetic permeability'
p2578
aS'jes'
p2579
aS'paid inclusion'
p2580
aS'access layer'
p2581
aS'xml core services'
p2582
aS'jar file'
p2583
aS'gpf'
p2584
aS'abohm'
p2585
aS'rails'
p2586
aS'wavelength-division multiplexing'
p2587
aS'w32.kriz, w32.kriz.dr, or pe_kriz'
p2588
aS'glass house'
p2589
aS't-carrier system'
p2590
aS'6to4'
p2591
aS'kazaa media desktop'
p2592
aS'back orifice'
p2593
aS'race condition'
p2594
aS'teletypewriter'
p2595
aS'joe job'
p2596
aS'x coordinate'
p2597
aS'eclinicalworks'
p2598
aS'microsoft outlook web app'
p2599
aS'telehealth'
p2600
aS'ncr'
p2601
aS'parallel advanced technology attachment'
p2602
aS'ultra mobile pc'
p2603
aS'sam'
p2604
aS'mac mini'
p2605
aS'zoomed video'
p2606
aS'ncm'
p2607
aS'rain'
p2608
aS'nca'
p2609
aS'national provider identifier'
p2610
aS'apache kafka'
p2611
aS'wan clustering'
p2612
aS'b'
aS'aaa'
p2613
aS'federated search'
p2614
aS'sales force automation'
p2615
aS'vcom'
p2616
aS'telecommunications'
p2617
aS'kapow'
p2618
aS'abcd data switch'
p2619
aS'lead generation'
p2620
aS'obfuscate'
p2621
aS'video'
p2622
aS'toe'
p2623
aS'vt, electron tube or valve'
p2624
aS'game theory'
p2625
aS'talker'
p2626
aS'team-based approach'
p2627
aS'galp'
p2628
aS'wearables os'
p2629
aS'reasonable and nondiscriminatory'
p2630
aS'wafs'
p2631
aS'favicon'
p2632
aS'learning path: new technologies'
p2633
aS'internet engineering task force'
p2634
aS'winfx'
p2635
aS'fan-out ratio'
p2636
aS'parc'
p2637
aS'unshielded twisted pair'
p2638
aS'rain fade'
p2639
aS'hard bounce'
p2640
aS'password entropy'
p2641
aS"earth's mean radius"
p2642
aS'management service provider'
p2643
aS'question 9'
p2644
aS'radio data system'
p2645
aS'ghost asset'
p2646
aS'fast guide: friday geeking'
p2647
aS'hard phone'
p2648
aS'tcpview'
p2649
aS'4-d printing'
p2650
aS'k7'
p2651
aS'k6'
p2652
aS'object-oriented programming'
p2653
aS'kinetic energy'
p2654
aS'magnetoresistive random access memory'
p2655
aS'canadian anti-spam legislation'
p2656
aS'3vs'
p2657
aS'general-purpose computer'
p2658
aS'rackspace cloud'
p2659
aS'network-attached storage enclosure'
p2660
aS'p ink'
p2661
aS'electronic filing'
p2662
aS'jsp'
p2663
aS'wall time'
p2664
aS'zip codes'
p2665
aS'gartner hype cycle'
p2666
aS'universal data access'
p2667
aS'negative slack'
p2668
aS'balloon for wireless'
p2669
aS'mail user agent'
p2670
aS'sapi'
p2671
aS'national data warehouse of official statistics'
p2672
aS'kb'
p2673
aS'uniform resource name'
p2674
aS'kg'
p2675
aS'asc x9'
p2676
aS'86 dos'
p2677
aS'electrophotography'
p2678
aS's.m.a.r.t.'
p2679
aS'jump page'
p2680
aS'km'
p2681
aS'actionable'
p2682
aS'kp'
p2683
aS'kw'
p2684
aS'qbe'
p2685
aS'high-bandwidth digital content protection'
p2686
aS'caching'
p2687
aS'velocity'
p2688
aS'ebitd'
p2689
aS'ultra hdtv'
p2690
aS'feather linux'
p2691
aS'letterpress'
p2692
aS'tcp wrapper'
p2693
aS'unified messaging (unified messaging system or ...'
p2694
aS'h-1b'
p2695
aS'xmodem'
p2696
aS'nasdaq'
p2697
aS'sap cloud for analytics'
p2698
aS'xanadu'
p2699
aS'cdr'
p2700
aS'capacity on demand'
p2701
aS'keitai'
p2702
aS'universal network'
p2703
aS'10 gbe'
p2704
aS'giant'
p2705
aS'electronic bill presentment and payment'
p2706
aS'e-mail reflector'
p2707
aS'passwords: do you speak geek?'
p2708
aS'abend'
p2709
aS'anqp'
p2710
aS'ultrapersonal computer'
p2711
aS'achievers corp.'
p2712
aS'iec'
p2713
aS'darwin'
p2714
aS'ras api'
p2715
aS'nagware'
p2716
aS'iiop'
p2717
aS'tdss'
p2718
aS'70-20-10 rule'
p2719
aS'ebitda ( earnings before interest, taxes, depre...'
p2720
aS'keylogger'
p2721
aS'e-tailware'
p2722
aS'pa-dss'
p2723
aS'hdcp'
p2724
aS'routing and special handling'
p2725
aS'tcp'
p2726
aS'manufacturing 2.0'
p2727
aS'm&o;'
p2728
aS'banner'
p2729
aS'packet coalescing'
p2730
aS'e-mail list'
p2731
aS'ubiquitous computing'
p2732
aS'hardware 101'
p2733
aS'federal information processing standard'
p2734
aS'capacitive scanner'
p2735
aS'querystring'
p2736
aS'office for civil rights'
p2737
aS'compact disc access time'
p2738
aS'learning path: testing network cable'
p2739
aS'd amps'
p2740
aS'x'
aS'kitemark'
p2741
aS"nagle's algorithm"
p2742
aS'$100 laptop'
p2743
aS'ieee 1394'
p2744
aS'vcio'
p2745
aS'computational fluid dynamics'
p2746
aS'unified extensible firmware interface'
p2747
aS'parallel file system'
p2748
aS'samsung galaxy'
p2749
aS'oc-x'
p2750
aS'printout'
p2751
aS'nibble'
p2752
aS'generalized markup language'
p2753
aS'quality control'
p2754
aS'verizon veris (vocabulary for event recording a...'
p2755
aS'nas appliance'
p2756
aS'lec'
p2757
aS'nanoscale technology'
p2758
aS'rashi peripherals'
p2759
aS'active directory forest'
p2760
aS'learning path: electronics'
p2761
aS'wide area network'
p2762
aS'magstripe reader'
p2763
aS'nanoanalysis'
p2764
aS'unsourcing'
p2765
aS'k56flex'
p2766
aS'quick start glossary: big data analytics'
p2767
aS'help america vote act of 2002'
p2768
aS'cache cramming'
p2769
aS'vfat'
p2770
aS'joint photographic experts group'
p2771
aS'abstract syntax notation one'
p2772
aS'olpc'
p2773
aS'national file tracking system'
p2774
aS'accelerated sap'
p2775
aS'federal health architecture'
p2776
aS'learning guide: firewalls'
p2777
aS'mail transport agent'
p2778
aS'oc-1'
p2779
aS'c-level'
p2780
aS'oc-3'
p2781
aS'oc-2'
p2782
aS'ecophlex'
p2783
aS'xslt'
p2784
aS'jedec'
p2785
aS'benefits administration'
p2786
aS'wan clustering (geoclustering, high-availabilit...'
p2787
aS'javascript'
p2788
aS'nand flash memory'
p2789
aS'one-way pager'
p2790
aS'computer-aided design'
p2791
aS'ike'
p2792
aS'random array of independent nodes'
p2793
aS'accountable care organization'
p2794
aS'unified messaging system'
p2795
aS'leo'
p2796
aS'sage crm'
p2797
aS'4gl'
p2798
aS'managed mobility services'
p2799
aS'canned air'
p2800
aS'c'
aS'e-choupal'
p2801
aS'mac address'
p2802
aS'nasa solutions for enterprise-wide procurement ...'
p2803
aS'tarchitecture'
p2804
aS'geofencing'
p2805
aS'amazon simple notification service'
p2806
aS'panther'
p2807
aS'zip drive'
p2808
aS'oc-768'
p2809
aS'e-5'
p2810
aS'e-4'
p2811
aS'les'
p2812
aS'e-1'
p2813
aS'queueing theory'
p2814
aS'e-3'
p2815
aS'e-2'
p2816
aS'udid'
p2817
aS'object oriented programming systems languages a...'
p2818
aS'n_port id virtualization'
p2819
aS'6 sigma'
p2820
aS'geolocation'
p2821
aS'zero-day vulnerability'
p2822
aS'facebook wall'
p2823
aS'battery'
p2824
aS'ubuntu'
p2825
aS'sc sustainability'
p2826
aS'parallel sysplex'
p2827
aS'verbose logging'
p2828
aS'wais'
p2829
aS'c shell'
p2830
aS'unlocked cell phone'
p2831
aS'or barcode'
p2832
aS'active matrix display'
p2833
aS'lar'
p2834
aS'faraday'
p2835
aS'sap xi'
p2836
aS'langmuir-blodgett film'
p2837
aS'yukon'
p2838
aS'802.15'
p2839
aS'edapt'
p2840
aS'802.16'
p2841
aS'802.11'
p2842
aS'watt per steradian'
p2843
aS'barcode reader (pos scanner, bar code reader, p...'
p2844
aS'split testing'
p2845
aS'waste electrical and electronic equipment direc...'
p2846
aS'hardware vpn'
p2847
aS'javascript hijacking'
p2848
aS'active reconnaissance'
p2849
aS'magnetic strip reader'
p2850
aS'offensive security'
p2851
aS'xam'
p2852
aS'daml'
p2853
aS'g.722'
p2854
aS'gestalt'
p2855
aS'g.729'
p2856
aS'glassfet'
p2857
aS'quantum indeterminacy'
p2858
aS'c/n'
p2859
aS'information superhighway'
p2860
aS'wall clock time'
p2861
aS'lean data transfer'
p2862
aS'handoff'
p2863
aS'framework as a service'
p2864
aS'ebif'
p2865
aS'gallium arsenide field-effect transistor'
p2866
aS'nas accelerators'
p2867
aS'kerberos'
p2868
aS'gas'
p2869
aS'e-mail server'
p2870
aS'ebcdic\xef\xbf\xbd'
p2871
aS'wave file'
p2872
aS'ebit'
p2873
aS'ebcdic (extended binary coded decimal interchan...'
p2874
aS'online analytical processing'
p2875
aS'valve'
p2876
aS'two-dimensional barcode'
p2877
aS'banner-blind'
p2878
aS'rds'
p2879
aS'p4'
p2880
aS'pacs'
p2881
aS'cannibalizing'
p2882
aS'optical character recognition'
p2883
aS'vortal'
p2884
aS'vanity url'
p2885
aS'batch'
p2886
aS'hardware load-balancing device'
p2887
aS'bcbs'
p2888
aS'magnetic tape'
p2889
aS'packet loss'
p2890
aS'canonical name'
p2891
aS'key value pair'
p2892
aS'rambus dynamic random access memory'
p2893
aS'bespoke'
p2894
aS'vob'
p2895
aS'ibm omnifind'
p2896
aS'national electronic disease surveillance system...'
p2897
aS'calculator'
p2898
aS'talent management software'
p2899
aS'ris'
p2900
aS'or hang'
p2901
aS'echelon'
p2902
aS'nand flash wear-out'
p2903
aS'open data center alliance'
p2904
aS'k map'
p2905
aS'nanomanipulator'
p2906
aS'qps'
p2907
aS'um server'
p2908
aS'lean programming'
p2909
aS'fast dial-up'
p2910
aS'gimp'
p2911
aS'queue'
p2912
aS'beep code'
p2913
aS'fedora'
p2914
aS'ic bpms'
p2915
aS'nanosecond'
p2916
aS'hadoop'
p2917
aS'cadmium telluride photovoltaics'
p2918
aS'rdf'
p2919
aS'united kingdom climate change act'
p2920
aS'federated presence management'
p2921
aS'octal'
p2922
aS'bol'
p2923
aS'kindle fire'
p2924
aS'fourth-generation wireless'
p2925
aS'natural user interface'
p2926
aS'caes'
p2927
aS'xna game studio'
p2928
aS'rdc'
p2929
aS'acceptance testing'
p2930
aS'high-density dvd'
p2931
aS'water-scrum-fall'
p2932
aS'rational unified process'
p2933
aS'gdmo (guidelines for definition of managed obje...'
p2934
aS'unix to unix copy protocol'
p2935
aS'wireless abstract xml'
p2936
aS'quad-core processor'
p2937
aS'3gl'
p2938
aS'vertical slash or upright slash'
p2939
aS'abfarad'
p2940
aS'daily build and smoke test'
p2941
aS'lb film'
p2942
aS'input/output contention'
p2943
aS'task'
p2944
aS'fcra'
p2945
aS'beowulf'
p2946
aS'illustrated definitions'
p2947
aS'i2s'
p2948
aS'kraken'
p2949
aS"new hacker's dictionary"
p2950
aS'learning path: television and cable tv'
p2951
aS'edge'
p2952
aS'zone file'
p2953
aS'linux, apache, mysql, php'
p2954
aS'y'
aS'geographic information system'
p2955
aS'e filing'
p2956
aS'layer 4-7 router'
p2957
aS'sap hana'
p2958
aS'$35 computer'
p2959
aS'khan academy'
p2960
aS'one laptop per child'
p2961
aS'parameter ram'
p2962
aS'mom'
p2963
aS'telegram'
p2964
aS'backup on the web'
p2965
aS'a-plus'
p2966
aS'hdlc'
p2967
aS'dark fiber'
p2968
aS'call center'
p2969
aS'ldq'
p2970
aS'7 days a week'
p2971
aS'e prescribing'
p2972
aS'wic'
p2973
aS'hawthorne effect'
p2974
aS'nanotechnology'
p2975
aS'radio paper or electronic paper'
p2976
aS's interface'
p2977
aS'tablet'
p2978
aS'java management extensions'
p2979
aS'obfuscator'
p2980
aS'wae'
p2981
aS'xml query language'
p2982
aS'kinect'
p2983
aS'faraday constant'
p2984
aS'password hardening'
p2985
aS'java archive file'
p2986
aS'i.link'
p2987
aS'ldif'
p2988
aS'packet hound'
p2989
aS'kloc'
p2990
aS'tamagotchi'
p2991
aS'backscatter'
p2992
aS'call logging'
p2993
aS'vdt (video display terminal, visual display ter...'
p2994
aS'vendor'
p2995
aS'password cracking'
p2996
aS'call recording'
p2997
aS'wavelength switching'
p2998
aS'xsp'
p2999
aS'basic input/output system'
p3000
aS'call monitoring'
p3001
aS'v.90'
p3002
aS'media access control address'
p3003
aS'aakash tablet computer'
p3004
aS'wbs'
p3005
aS'security assertion markup language'
p3006
aS'd'
aS'updating and installing software in ubuntu'
p3007
aS'gb billing'
p3008
aS'pareto efficiency'
p3009
aS'malicious software'
p3010
aS'fan out'
p3011
aS'lambda switching (photonic switching, or wavele...'
p3012
aS'telecommute'
p3013
aS'jam sync'
p3014
aS'u.s. department of homeland security'
p3015
aS"ohm's law"
p3016
aS'national electronic funds transfer'
p3017
aS'pan truncation'
p3018
aS'javabean'
p3019
aS'fat mac'
p3020
aS'demilitarized zone'
p3021
aS'ppd'
p3022
aS'nanolithography'
p3023
aS'active sensor'
p3024
aS'haptics'
p3025
aS'bacn'
p3026
aS'sata controller'
p3027
aS'unified network management'
p3028
aS'acid (atomicity, consistency, isolation, and du...'
p3029
aS'saa'
p3030
aS'sata ii'
p3031
aS'java 2 micro edition'
p3032
aS'calm technology'
p3033
aS'sample rate'
p3034
aS'ultra dma 33'
p3035
aS'x-box'
p3036
aS'bare-metal cloud'
p3037
aS'telephone jacks'
p3038
aS'vna'
p3039
aS'barcode printer'
p3040
aS'job step'
p3041
aS'saas'
p3042
aS'darpa agent markup language'
p3043
aS'hash-based message authentication code'
p3044
aS'ideation management'
p3045
aS'e-biz'
p3046
aS'2-tier internet'
p3047
aS'unified modeling language'
p3048
aS'graphics interchange format version 89a'
p3049
aS'actionable intelligence'
p3050
aS'ec directive regulations 2002'
p3051
aS'pvm'
p3052
aS'internet assigned numbers authority'
p3053
aS'led light bulb'
p3054
aS'cap theorem'
p3055
aS'ba'
p3056
aS'graphics interchange format'
p3057
aS's/n'
p3058
aS'zombie'
p3059
aS'bu'
p3060
aS'y-modem'
p3061
aS'tcp/ip accelerator network interface card'
p3062
aS'zimmermann real time transport protocol'
p3063
aS'oem'
p3064
aS'umls'
p3065
aS'quantum measurement indeterminacy'
p3066
aS'source data or atomic data'
p3067
aS'b-tree'
p3068
aS'uart'
p3069
aS'last mile of finance'
p3070
aS'sata'
p3071
aS'navy knowledge online'
p3072
aS'ids'
p3073
aS'idl'
p3074
aS'1gl'
p3075
aS'garbage in, gospel out'
p3076
aS'xsl'
p3077
aS'idf'
p3078
aS'thousands of lines of code'
p3079
aS'ide'
p3080
aS'gamma'
p3081
aS'mahindra special services group'
p3082
aS'barcode reader'
p3083
aS'icloud'
p3084
aS'garbage'
p3085
aS'parity'
p3086
aS'baseline'
p3087
aS'validity period'
p3088
aS'ear and mouth'
p3089
aS'nse'
p3090
aS'satellite return internet connection'
p3091
aS'quantum extended graphics array'
p3092
aS'pastebin'
p3093
aS'warm boot'
p3094
aS'software-as-a-service erp hosting'
p3095
aS'very high speed backbone network service'
p3096
aS'vaai'
p3097
aS'international financial reporting standards'
p3098
aS'facebook status'
p3099
aS'java 2 micro ed'
p3100
aS'korea scale for internet addiction'
p3101
aS'unix 98'
p3102
aS'leased line'
p3103
aS'edifact'
p3104
aS'managed network security services'
p3105
aS'telephone network standards'
p3106
aS'unix 93'
p3107
aS'accountability'
p3108
aS'value innovation'
p3109
aS'capacitance'
p3110
aS'leonardo pisano'
p3111
aS'nanomachine'
p3112
aS'parallel virtual machine'
p3113
aS'halloween ii: do you speak -- eek! -- geek?'
p3114
aS'zimmermann real-time transport protocol'
p3115
aS'wats'
p3116
aS'waste electrical and electronic equipment regul...'
p3117
aS's773'
p3118
aS'vehicle-to-vehicle communication (v2v communica...'
p3119
aS'qam'
p3120
aS'gantt chart'
p3121
aS'rados (reliable autonomic distributed object st...'
p3122
aS'p/390'
p3123
aS'gauss'
p3124
aS'negative float'
p3125
aS'activex control'
p3126
aS'sda'
p3127
aS'java archive'
p3128
aS'nanowire'
p3129
aS'i/o fencing'
p3130
aS'fda'
p3131
aS'bai2 file format'
p3132
aS'fde'
p3133
aS'tape archive'
p3134
aS'fdic'
p3135
aS'vertical cavity surface emitting laser'
p3136
aS'fdm'
p3137
aS'xipc'
p3138
aS'e-copy'
p3139
aS'cis'
p3140
aS'generally accepted recordkeeping principles'
p3141
aS'calea (communications assistance for law enforc...'
p3142
aS'capacity planning'
p3143
aS'nanopaint'
p3144
aS'bank secrecy act'
p3145
aS'oc-12'
p3146
aS'fast guide to dtv'
p3147
aS'faas'
p3148
aS's/390'
p3149
aS'of-config (openflow configuration and managemen...'
p3150
aS't interface'
p3151
aS'one-to-one-marketing'
p3152
aS'lemniscate'
p3153
aS'jtapi'
p3154
aS'e paper'
p3155
aS'tdss or alureon'
p3156
aS'national vulnerability database'
p3157
aS'economizer'
p3158
aS'vendor-managed inventory'
p3159
aS't.38 fax over ip'
p3160
aS'ramdac'
p3161
aS'wide-area telephone service'
p3162
aS'sap enterprise support'
p3163
aS'high-level data link control'
p3164
aS'cad/cam (computer-aided design/computer-aided m...'
p3165
aS'learning path: operating systems and applications'
p3166
aS'upcharge'
p3167
aS'%'
aS'teleconference'
p3168
aS'olap cube'
p3169
aS'nak'
p3170
aS'edfa'
p3171
aS'jce'
p3172
aS'nap'
p3173
aS'gre'
p3174
aS'access point'
p3175
aS'glba'
p3176
aS'nat'
p3177
aS'jcl'
p3178
aS'mammoth'
p3179
aS'best practices'
p3180
aS'garbage in, garbage out'
p3181
aS'xaml'
p3182
aS'virtual desktop access'
p3183
aS'zoning improvement plan codes'
p3184
aS'backup and recovery glossary'
p3185
aS'password synchronization'
p3186
aS'beos'
p3187
aS'w32 rjump'
p3188
aS'manufacturing intelligence software'
p3189
aS'14000'
p3190
aS'14001'
p3191
aS'backbone'
p3192
aS'ram based solid state drive'
p3193
aS'yottabyte'
p3194
aS'zenware'
p3195
aS'y2k'
p3196
aS'faxserver'
p3197
aS'rapid access computing environment'
p3198
aS'near-infrared illumination'
p3199
aS'tablespace'
p3200
aS'access network'
p3201
aS'e'
aS'zombie army'
p3202
aS'rational rose'
p3203
aS'e-speak'
p3204
aS'm/sec'
p3205
aS'icenewk'
p3206
aS'edge device'
p3207
aS'parallel ata'
p3208
aS'unit testing'
p3209
aS'sap jam'
p3210
aS'satellite'
p3211
aS'one-molecule transistor'
p3212
aS'2001'
p3213
aS'generic top level domain name'
p3214
aS'tcp/ip offload engine'
p3215
aS'e-signature bill'
p3216
aS'iam system'
p3217
aS'kermit'
p3218
aS'dark data center'
p3219
aS'bell operating company'
p3220
aS'eda'
p3221
aS'edd'
p3222
aS'geekspeak'
p3223
aS'ncsa'
p3224
aS'war dialing'
p3225
aS'edi'
p3226
aS'vldb'
p3227
aS'malicious advertisment'
p3228
aS'jaz drive'
p3229
aS'edm'
p3230
aS'illustrated'
p3231
aS'gb'
p3232
aS'ibm pureflex'
p3233
aS'gl'
p3234
aS'hardware as a service'
p3235
aS'illegal operation'
p3236
aS'raf'
p3237
aS'packet mangling'
p3238
aS'rabbit hole'
p3239
aS'hangup'
p3240
aS'onboarding and offboarding'
p3241
aS'acceleration hardware'
p3242
aS'sage timberline office'
p3243
aS'quality assurance'
p3244
aS'jumpstart our business startups act'
p3245
aS'td-scdma (time division synchronous code divisi...'
p3246
aS'junit'
p3247
aS'ieee computer society (institute of electrical ...'
p3248
aS'password cracker'
p3249
aS'fast guide: enterprise air applications'
p3250
aS'g4'
p3251
aS'g3'
p3252
aS'32-bit ip address'
p3253
aS'favorite icon'
p3254
aS'pagination'
p3255
aS'magnetic ink character recognition'
p3256
aS'satellite digital audio radio service'
p3257
aS'facebook'
p3258
aS'one to one'
p3259
aS'man-in-the-middle'
p3260
aS'p and np'
p3261
aS'backup log'
p3262
aS'dark data'
p3263
aS'rad'
p3264
aS'wavetable'
p3265
aS'jericho forum'
p3266
aS'vertical line'
p3267
aS'baby botnet'
p3268
aS'transmission'
p3269
aS'ia-64'
p3270
aS'.net 3.0'
p3271
aS'xactly corporation'
p3272
aS'racf'
p3273
aS'olap'
p3274
aS'race'
p3275
aS'geo-fencing'
p3276
aS'universal description, discovery, and integration'
p3277
aS'law of large numbers'
p3278
aS'tablet pc'
p3279
aS'rack'
p3280
aS'216-color browser-safe palette'
p3281
aS'lan party'
p3282
aS'half-life'
p3283
aS'radio paper'
p3284
aS'tcp/ip'
p3285
aS'managed hosting'
p3286
aS'odp'
p3287
aS'cfd'
p3288
aS'ods'
p3289
aS'x engineering'
p3290
aS'tdi'
p3291
aS'uncloud'
p3292
aS'odi'
p3293
aS'odl'
p3294
aS'rdf site summary'
p3295
aS'hardware emulation'
p3296
aS'easy pass'
p3297
aS'hardware virtualization'
p3298
aS'acid'
p3299
aS'cfr'
p3300
aS'hard real time system'
p3301
aS'rdns'
p3302
aS'bdd'
p3303
aS'pandemic planning'
p3304
aS'bdc'
p3305
aS'uhdv'
p3306
aS'learning path: telephony and wide area networks'
p3307
aS's. 877'
p3308
aS'lata'
p3309
aS'access'
p3310
aS'backtracking'
p3311
aS'versioned object base'
p3312
aS'wcet'
p3313
aS'acceleratedasp'
p3314
aS'3g'
p3315
aS'daisy chain'
p3316
aS'3d'
p3317
aS'm theory'
p3318
aS'tag image file format'
p3319
aS'hdml'
p3320
aS'bare metal environment'
p3321
aS'iframe'
p3322
aS'hdmi'
p3323
aS'x.500'
p3324
aS'ieee 802 wireless standards: fast reference'
p3325
aS'darknet'
p3326
aS'teleportation'
p3327
aS'nacha'
p3328
aS'georss'
p3329
aS'layer two tunneling protocol'
p3330
aS'fc pga'
p3331
aS'4-d human atlas'
p3332
aS'interior gateway protocol'
p3333
aS'ultra hd'
p3334
aS'learning aid'
p3335
aS'rdp'
p3336
aS'access point mapping'
p3337
aS'quarter high definition'
p3338
aS'm3u'
p3339
aS'paper and binding sizes'
p3340
aS'extensible user-interface language'
p3341
aS'bar code'
p3342
aS'2000 year old computer'
p3343
aS'vbr'
p3344
aS'ibm global process services'
p3345
aS'nni'
p3346
aS'underwater rov'
p3347
aS'rdm'
p3348
aS'rdo'
p3349
aS'sap bw'
p3350
aS'your pc graveyards'
p3351
aS'network services'
p3352
aS'abcd'
p3353
aS'joost'
p3354
aS'sap rapid deployment solutions'
p3355
aS'universal time coordinated'
p3356
aS'hard reset'
p3357
aS'ns or nsec'
p3358
aS'defense advanced research projects agency'
p3359
aS'federal portfolio management'
p3360
aS'nasdaq information exchange protocol'
p3361
aS'thick client'
p3362
aS'team based approach'
p3363
aS'learning path: network infrastructure'
p3364
aS'eclipse foundation'
p3365
aS'jrun'
p3366
aS'r/2'
p3367
aS'r/3'
p3368
aS'olap dashboard'
p3369
aS'gateway'
p3370
aS'fast guide to dsl'
p3371
aS'fed'
p3372
aS'ui redressing'
p3373
aS'10 gigabit ethernet'
p3374
aS'fec'
p3375
aS'marketecture'
p3376
aS'usn'
p3377
aS'ic-bpms (integration-centric business process m...'
p3378
aS'molecular manufacturing'
p3379
aS'next'
p3380
aS'unipolar signaling'
p3381
aS'usp'
p3382
aS'panel'
p3383
aS'tcam'
p3384
aS'radian per second'
p3385
aS'man in the browser'
p3386
aS'xsrf'
p3387
aS'sap one support'
p3388
aS'iis'
p3389
aS'learning path: cybers and virtuals'
p3390
aS'nasscom'
p3391
aS'benchmark'
p3392
aS'xns'
p3393
aS'unipolar transmission'
p3394
aS'hailstorm'
p3395
aS'california security breach information act'
p3396
aS'zif socket'
p3397
aS'vestigial sideband'
p3398
aS'account'
p3399
aS'jedec sdram (joint electron device engineering ...'
p3400
aS'bare-metal hypervisor'
p3401
aS'f'
aS'ghost site'
p3402
aS'wavelength division multiplexing'
p3403
aS'object code'
p3404
aS'e911'
p3405
aS'family educational rights and privacy act of 1974'
p3406
aS'range expander'
p3407
aS'wbem'
p3408
aS"occam's razor"
p3409
aS'aadhaar'
p3410
aS'laboratory robotics'
p3411
aS'madware'
p3412
aS'knowledge process outsourcing'
p3413
aS'oe'
p3414
aS'xdma'
p3415
aS'federated cloud'
p3416
aS'sarbanes-oxley act'
p3417
aS'identity chaos'
p3418
aS'packet monkey'
p3419
aS'3d virtual tradeshow'
p3420
aS'r programming language'
p3421
aS'anything as a service'
p3422
aS'above the fold'
p3423
aS'raw data'
p3424
aS'cap and trade system'
p3425
aS'tag'
p3426
aS'e-mail program'
p3427
aS'tan'
p3428
aS'magnetoresistive ram'
p3429
aS'o2c'
p3430
aS'josephson interferometer'
p3431
aS'hdcd'
p3432
aS'lamb'
p3433
aS'malware'
p3434
aS'liquid crystal display'
p3435
aS'parameter random access memory'
p3436
aS'100base-t'
p3437
aS'vga'
p3438
aS'g.703'
p3439
aS'ad domain'
p3440
aS'keychain drive'
p3441
aS'kri'
p3442
aS'very small aperture terminal'
p3443
aS'raid-6'
p3444
aS'java database connectivity connector'
p3445
aS'native'
p3446
aS'object-oriented database management system (ood...'
p3447
aS'value-added reseller agreement'
p3448
aS'base station'
p3449
aS'npi'
p3450
aS'extensible mpeg-4 textual'
p3451
aS'marketing-qualified lead'
p3452
aS'sap business one'
p3453
aS'letter of intent'
p3454
aS'platform for privacy preferences'
p3455
aS'handle to registry key'
p3456
aS'jiffy'
p3457
aS'vdi boot storm'
p3458
aS'garbage in garbage out'
p3459
aS'lean client'
p3460
aS'table of physical units'
p3461
aS'cpca'
p3462
aS'nps'
p3463
aS'npr'
p3464
aS'baffle'
p3465
aS'dark infrastructure'
p3466
aS'rad/sec'
p3467
aS'object relational mapping'
p3468
aS"earth's mean orbital speed"
p3469
aS'failover'
p3470
aS'gigabyte'
p3471
aS'kill switch'
p3472
aS'object-oriented'
p3473
aS'pandemic plan'
p3474
aS'zphone'
p3475
aS'joomla!'
p3476
aS'e-nose'
p3477
aS'vml'
p3478
aS'federal health information exchange'
p3479
aS'd-amps'
p3480
aS'vmi'
p3481
aS'jsr 208'
p3482
aS'namespace'
p3483
aS'a/m'
p3484
aS'kba'
p3485
aS'zip disk'
p3486
aS'telecom regulatory authority of india'
p3487
aS'a/v'
p3488
aS'tcl'
p3489
aS'active directory tree'
p3490
aS'ifrs'
p3491
aS'mobile commerce'
p3492
aS'generally accepted recordkeeping principles (th...'
p3493
aS'facebook scam'
p3494
aS'b8zs (bipolar 8-zero substitution, binary 8-zer...'
p3495
aS'.ost'
p3496
aS'geothermal energy'
p3497
aS'generally accepted accounting standards'
p3498
aS'lamp'
p3499
aS'li'
p3500
aS'z/os'
p3501
aS'office cubicle'
p3502
aS'lecs'
p3503
aS'latitude'
p3504
aS'kilogram-meter per second'
p3505
aS'a/b testing'
p3506
aS'online transaction processing'
p3507
aS'joint academic network'
p3508
aS'satellite radio or satellite digital audio radi...'
p3509
aS'raid 10'
p3510
aS'daa'
p3511
aS'dab'
p3512
aS'good manufacturing practice'
p3513
aS'factorial'
p3514
aS'dam'
p3515
aS'dao'
p3516
aS'kilo, mega, giga, tera, peta, and all that'
p3517
aS'ibm mobilefirst'
p3518
aS'quick response code'
p3519
aS'a plus'
p3520
aS'kiss'
p3521
aS'9660'
p3522
aS'techno-fiend'
p3523
aS'bar'
p3524
aS'pango'
p3525
aS'x#'
p3526
aS'kg\xef\xbf\xbdm/s'
p3527
aS'tape backup'
p3528
aS'identity access management'
p3529
aS'nfc'
p3530
aS'klout score'
p3531
aS'ultrasound'
p3532
aS'icd-9-cm (international classification of disea...'
p3533
aS'.net'
p3534
aS'trai'
p3535
aS'var agreement'
p3536
aS'quad gate'
p3537
aS'all-flash array'
p3538
aS'fatal exception'
p3539
aS'l2'
p3540
aS'l1'
p3541
aS'backup with dat usb'
p3542
aS'kpi'
p3543
aS'kaizen'
p3544
aS'variable-length subnet mask'
p3545
aS'candela'
p3546
aS'kpo'
p3547
aS'ecass'
p3548
aS'intermediate document'
p3549
aS'xorp'
p3550
aS'basel ii'
p3551
aS'360-degree customer view'
p3552
aS'object-relational mapping'
p3553
aS'wearable robot'
p3554
aS'calibrate'
p3555
aS'ecash'
p3556
aS'80'
p3557
aS'hld'
p3558
aS'garp vlan'
p3559
aS'vcd'
p3560
aS'backside bus'
p3561
aS'fair credit reporting act'
p3562
aS'ogg vorbis'
p3563
aS'a-esu'
p3564
aS'community cloud'
p3565
aS'xbrl'
p3566
aS'zabbix'
p3567
aS'obfuscation'
p3568
aS'icmp sweep'
p3569
aS'vcr'
p3570
aS's.773'
p3571
aS'geospatial analysis'
p3572
aS'sap twogo'
p3573
aS'zulu time'
p3574
aS's-video'
p3575
aS'igmp'
p3576
aS'keyword stuffing'
p3577
aS'led backlight lcd television'
p3578
aS'third-party assessment organization'
p3579
aS'id3v2'
p3580
aS'ecc'
p3581
aS'ecb'
p3582
aS'office of cyber security and information assurance'
p3583
aS'edgar f. "ted" codd'
p3584
aS'ecm'
p3585
aS'object oriented programming'
p3586
aS'w3c'
p3587
aS'battery memory effect'
p3588
aS'hardware abstraction layer'
p3589
aS'leetspeek'
p3590
aS'accounts payable'
p3591
aS'generally accepted accounting principles'
p3592
aS'backward combatible'
p3593
aS'ecp'
p3594
aS'transmission control protocol'
p3595
aS'object request broker'
p3596
aS'pagejacking'
p3597
aS'x-modem'
p3598
aS'g'
aS'cancelbot'
p3599
aS'ymodem'
p3600
aS'laboratory data sharing interoperability'
p3601
aS'sap high performance analytic appliance'
p3602
aS'queue depth'
p3603
aS'giant magnetoresistive effect'
p3604
aS'length'
p3605
aS'national health service'
p3606
aS'software as a service'
p3607
aS'parallel'
p3608
aS'vascular id'
p3609
aS'tahoe least-authority file system'
p3610
aS'learning management system'
p3611
aS'manufacturing message specification'
p3612
aS'ieee standards association (institute of electr...'
p3613
aS'saser (sound amplification by stimulated emissi...'
p3614
aS'transaction authentication number'
p3615
aS'e-postage'
p3616
aS'kilobyte'
p3617
aS'i.t.'
p3618
aS'tcp port numbers'
p3619
aS'hard drive'
p3620
aS'70-20-10'
p3621
aS'mah'
p3622
aS'national automated clearing house association (...'
p3623
aS'ibm partnerworld'
p3624
aS'partner relationship management'
p3625
aS'backup domain controller'
p3626
aS'ondemand mail relay'
p3627
aS'language integrated query'
p3628
aS'cabir'
p3629
aS'lcd tv'
p3630
aS'ultra-hd'
p3631
aS'odma'
p3632
aS'icd-10'
p3633
aS'icd-11'
p3634
aS'e-mail forgery'
p3635
aS'makefile'
p3636
aS'vax'
p3637
aS'bellcore'
p3638
aS'gcsx'
p3639
aS'fahrenheit'
p3640
aS'backdoor'
p3641
aS'hakspeak'
p3642
aS'tag-jacking'
p3643
aS'odmr'
p3644
aS'l2tp'
p3645
aS'raid controller'
p3646
aS'vampire tap'
p3647
aS'high definition television'
p3648
aS'bastion host'
p3649
aS'kvm hypervisor'
p3650
aS'macbook air'
p3651
aS'udp'
p3652
aS'telematics'
p3653
aS'manufacturing execution system'
p3654
aS'ieee 1284 parallel interface standard'
p3655
aS'idov methodology (identify, design, optimize, v...'
p3656
aS'cannibalization'
p3657
aS'k-scale for internet addiction (korea scale for...'
p3658
aS'uda'
p3659
aS'jbig'
p3660
aS'knowledge based authentication'
p3661
aS'icd-10-cm (international classification of dise...'
p3662
aS'xon/xoff'
p3663
aS'e voting'
p3664
aS'im bot'
p3665
aS'association for computing machinery'
p3666
aS'access point base station'
p3667
aS'active server pages'
p3668
aS'lambda switching'
p3669
aS'ndis'
p3670
aS'bel'
p3671
aS'campaign for real mail'
p3672
aS'package management system'
p3673
aS'pan setting'
p3674
aS'sap integration repository'
p3675
aS'activex data objects'
p3676
aS'oa&m (operations, administration, and manag...'
p3677
aS'd-channel'
p3678
aS'ber'
p3679
aS'bes'
p3680
aS'get windows 10 app'
p3681
aS'rboc'
p3682
aS'or decompressing'
p3683
aS'active cooling'
p3684
aS'integrated definition'
p3685
aS'malicious ad'
p3686
aS'halogen software inc.'
p3687
aS'earnings season'
p3688
aS'id chip'
p3689
aS'quantum interference'
p3690
aS'mpeg-4 avc'
p3691
aS'partnership'
p3692
aS'no country redirect'
p3693
aS'xfs file system'
p3694
aS'136 browser colors with names'
p3695
aS'large hadron collider'
p3696
aS'h.248'
p3697
aS'hava'
p3698
aS'learning path: wireless and cellular'
p3699
aS'killswitch'
p3700
aS'geoengineering'
p3701
aS'union symbol'
p3702
aS'nano emissive display'
p3703
aS'havi'
p3704
aS'injection laser or diode laser'
p3705
aS'h.245'
p3706
aS'template'
p3707
aS'xss hole'
p3708
aS'generation facebook'
p3709
aS'unique identification authority of india'
p3710
aS'varicode'
p3711
aS'off-peak'
p3712
aS"kerckhoff's principle"
p3713
aS'password chaos'
p3714
aS'mib'
p3715
aS'sandbox'
p3716
aS'zero-based thinking'
p3717
aS'flip chip-pin grid array'
p3718
aS'backplane'
p3719
aS'fast array of wimpy nodes'
p3720
aS'wan accelerator'
p3721
aS'k-scale'
p3722
aS'ncsc'
p3723
aS'caiq (consensus assessments initiative question...'
p3724
aS'xhr'
p3725
aS'jaas'
p3726
aS'hard skills'
p3727
aS'bayesian filter'
p3728
aS'awt'
p3729
aS'z-modem'
p3730
aS'kickstand'
p3731
aS'zero insertion force socket'
p3732
aS'blind carbon copy or blind courtesy copy'
p3733
aS'identity as a service'
p3734
aS'offshore outsourcing'
p3735
aS'sap hana one'
p3736
aS'last-mile technology'
p3737
aS'sa'
p3738
aS'64-bit'
p3739
aS'sfa'
p3740
aS'fedramp'
p3741
aS'zfs'
p3742
aS'just enough operating system'
p3743
aS'xga-2'
p3744
aS'3-d printing'
p3745
aS's corporation'
p3746
aS'keyhole markup language'
p3747
aS'pasta theory'
p3748
aS'necp'
p3749
aS'layer 4-7'
p3750
aS'g.711'
p3751
aS'walkie talkie'
p3752
aS'partner account manager'
p3753
aS'microsoft windows powershell web access (window...'
p3754
aS'geoclustering'
p3755
aS'a/m 2'
p3756
aS'vmo'
p3757
aS'unified computing system'
p3758
aS'learning path: security'
p3759
aS'tty'
p3760
aS'fact table'
p3761
aS'raid 7'
p3762
aS'raid 4'
p3763
aS'hardware raid (hardware redundant array of inde...'
p3764
aS'generic routing encapsulation'
p3765
aS'raid 3'
p3766
aS'raid 0'
p3767
aS'raid 1'
p3768
aS'12x'
p3769
aS'illumos'
p3770
aS'generic attribute registration protocol'
p3771
aS'magnetic potential'
p3772
aS'one'
p3773
aS'idsl'
p3774
aS'knowledge'
p3775
aS'v model'
p3776
aS'var-to-var'
p3777
aS'ifcp'
p3778
aS'xml information set'
p3779
aS'cache'
p3780
aS'rapid mobile app development'
p3781
aS'managed it service'
p3782
aS'hacktivist'
p3783
aS'jam'
p3784
aS'candidate management system'
p3785
aS'campus network'
p3786
aS'ksm'
p3787
aS'mua'
p3788
aS'hackerazzi'
p3789
aS'fast retransmit and recovery'
p3790
aS'vesa vl bus'
p3791
aS'leaderboard'
p3792
aS'satae'
p3793
aS'backscatter body scanning'
p3794
aS'bcma'
p3795
aS'zaware'
p3796
aS'acceleration server'
p3797
aS'passive attack'
p3798
aS'e-voting glossary'
p3799
aS'xdm'
p3800
aS'health care compliance association'
p3801
aS'abbh'
p3802
aS'zaap'
p3803
aS'121'
p3804
aS'bean'
p3805
aS'10base-36'
p3806
aS'acoustical infection'
p3807
aS'x window system'
p3808
aS'learning path: nanotechnology'
p3809
aS'baseband video'
p3810
aS'malicious computer code: glossary'
p3811
aS'managed print services'
p3812
aS'learn it: defeating spam in the enterprise'
p3813
aS'kibi'
p3814
aS'zine'
p3815
aS'cached'
p3816
aS'h'
aS'kernel panic'
p3817
aS'sap mobile documents'
p3818
aS'fcaps (fault-management, configuration, account...'
p3819
aS'qa'
p3820
aS'handspring'
p3821
aS'national emergency communications plan'
p3822
aS'acceptance test'
p3823
aS'e-form'
p3824
aS'management information systems'
p3825
aS'ebxml initiative'
p3826
aS'raceway'
p3827
aS'value-added network'
p3828
aS'learning path: malware'
p3829
aS'geo-replication'
p3830
aS'ofdm'
p3831
aS'xmlnews'
p3832
aS'nanotube'
p3833
aS'ultra personal computer'
p3834
aS'garbage collecting'
p3835
aS'feature group d'
p3836
aS'teergrube'
p3837
aS'packet'
p3838
aS'joy stick'
p3839
aS'talking translator'
p3840
aS'legacy'
p3841
aS'cable modem termination system'
p3842
aS'josephson effect'
p3843
aS'sap user conference'
p3844
aS'object-oriented database management system'
p3845
aS'k desktop environment'
p3846
aS'electronic mail or email'
p3847
aS'xmpp'
p3848
aS'xerces'
p3849
aS'active rfid (active radio frequency identificat...'
p3850
aS'nebula'
p3851
aS'xjack'
p3852
aS'nedss'
p3853
aS'kbw'
p3854
aS'xpath injection'
p3855
aS'unit of pressure'
p3856
aS's corp'
p3857
aS'backup utility'
p3858
aS'mailing list'
p3859
aS'keyboard, video, mouse switch'
p3860
aS'yast'
p3861
aS'leaf-spine'
p3862
aS'telecommunications management network'
p3863
aS'windows azure'
p3864
aS'san island'
p3865
aS'10base-5'
p3866
aS'community antenna television'
p3867
aS'e-invoicing'
p3868
aS'ultrahigh frequency'
p3869
aS'user datagram protocol'
p3870
aS'learn it: systems management'
p3871
aS'job'
p3872
aS"kryder's law"
p3873
aS'joe'
p3874
aS'key'
p3875
aS'van eck phreaking'
p3876
aS'wapi'
p3877
aS'e-learning'
p3878
aS'telepresence robot'
p3879
aS'vrm'
p3880
aS'keystroke logger'
p3881
aS'radian per second squared'
p3882
aS'p2p'
p3883
aS'paravirtualization'
p3884
aS'e prescribing incentive program'
p3885
aS'gbps'
p3886
aS'sapui5'
p3887
aS'extensible public relations language'
p3888
aS'802.5'
p3889
aS'machine-to-machine'
p3890
aS'tape drive'
p3891
aS'dark energy'
p3892
aS'basic rate interface'
p3893
aS'802.3'
p3894
aS'qfe'
p3895
aS'simple api for xml'
p3896
aS'offline backup'
p3897
aS'teach box'
p3898
aS'call signaling'
p3899
aS'co'
p3900
aS'ohm'
p3901
aS'm/s'
p3902
aS'ca'
p3903
aS'ac'
p3904
aS'supplier exchange'
p3905
aS'cd'
p3906
aS'managed security services'
p3907
aS'maemo'
p3908
aS'ucc'
p3909
aS'battery management system'
p3910
aS'b8zs'
p3911
aS'table'
p3912
aS'ucm'
p3913
aS'omnichannel'
p3914
aS'e-ticket'
p3915
aS'cache poisoning (domain name system poisoning o...'
p3916
aS'farad'
p3917
aS'radio detection and ranging'
p3918
aS'lan-free backup'
p3919
aS'haswell'
p3920
aS'managerial grid model (the blake and mouton man...'
p3921
aS'watermark'
p3922
aS'quiz'
p3923
aS'json'
p3924
aS"major it players: how'd they start out?"
p3925
aS'kyoto cooling'
p3926
aS'x-off'
p3927
aS'leap (lightweight extensible authentication pro...'
p3928
aS'ocr'
p3929
aS'.ini'
p3930
aS'feather'
p3931
aS'asexual reproduction'
p3932
aS'bbs'
p3933
aS's/mime'
p3934
aS'parallel adoption'
p3935
aS'direct connect'
p3936
aS'key chain drive'
p3937
aS'tabbed browsing'
p3938
aS'c#'
p3939
aS'tap'
p3940
aS'caddy'
p3941
aS'j2ee'
p3942
aS'oha'
p3943
aS'information display system'
p3944
aS'fast guide to mobile telephony'
p3945
aS'xmi'
p3946
aS'otp'
p3947
aS'hard disk'
p3948
aS'c6'
p3949
aS'gestalt (grid-based estimation of surface trave...'
p3950
aS'laser'
p3951
aS'waste heat recovery'
p3952
aS'captcha (completely automated public turing tes...'
p3953
aS'telework'
p3954
aS'accumulator'
p3955
aS'e reader'
p3956
aS'aaui'
p3957
aS'radio silence'
p3958
aS'marsenne prime'
p3959
aS'vb .net'
p3960
aS'rbd'
p3961
aS'cvc'
p3962
aS'interlocking door controller'
p3963
aS'e and m'
p3964
aS'e-mail rage'
p3965
aS'input/output fencing'
p3966
aS'national information exchange model'
p3967
aS"basic (beginner's all-purpose symbolic instruct..."
p3968
aS'passive optical network'
p3969
aS'abcoulomb'
p3970
aS'hardcode'
p3971
aS'squid'
p3972
aS'absolute link'
p3973
aS'sap businessobjects bi'
p3974
aS'real-world time or wall-clock time'
p3975
aS'hardware'
p3976
aS'm-life'
p3977
aS'universal resource locator'
p3978
aS'backhaul'
p3979
aS'happy hour virus'
p3980
aS'$100 personal computer'
p3981
aS'oa&m;'
p3982
aS'capture'
p3983
aS'electronic commerce or ec'
p3984
aS'unzipping'
p3985
aS'w32.kriz virus'
p3986
aS'kyoto wheel'
p3987
aS'dac'
p3988
aS'magnetic storage'
p3989
aS'upnp'
p3990
aS'ole db'
p3991
aS'pdl'
p3992
aS'ibm system z integrated information processor (...'
p3993
aS'in networks'
p3994
aS'palo alto research center'
p3995
aS'vertical slash'
p3996
aS'fbi alert number i-091015-psa'
p3997
aS'cod'
p3998
aS'xacl'
p3999
aS'gaasfet'
p4000
aS'hd rom'
p4001
aS'water cooling'
p4002
aS'iov'
p4003
aS'partner portal'
p4004
aS'p versus np (polynomial versus nondeterministic...'
p4005
aS'vector markup language'
p4006
aS'marketing encyclopedia'
p4007
aS'federal information processing standardization 140'
p4008
aS'telepresence room'
p4009
aS'iloveyou virus'
p4010
aS'gfebs'
p4011
aS'key-value pair'
p4012
aS'best and final offer'
p4013
aS'interface definition language'
p4014
aS't rex'
p4015
aS'very high frequency'
p4016
aS'zero-tv'
p4017
aS'w2k'
p4018
aS'dpa 1998'
p4019
aS'oab'
p4020
aS'ofb'
p4021
aS'vector graphics rendering'
p4022
aS'zmodem protocol'
p4023
aS'super-video, y/c video, component video'
p4024
aS'international business machines'
p4025
aS'uml'
p4026
aS'managed service provider platform'
p4027
aS'object'
p4028
aS"acta (america's carriers telecommunications ass..."
p4029
aS'immediate real-time system'
p4030
aS'16- bit unicode transformation format'
p4031
aS'packethound'
p4032
aS'ecmascript'
p4033
aS'qik'
p4034
aS'3 d chip'
p4035
aS'keystone jack'
p4036
aS'tar archive'
p4037
aS'paradox'
p4038
aS'market segmentation'
p4039
aS'raid rebuild'
p4040
aS'2d barcode'
p4041
aS'object-oriented programming in the enterprise'
p4042
aS'identity access management system'
p4043
aS'take-down request'
p4044
aS'ibm daksh'
p4045
aS'das'
p4046
aS'ocsp'
p4047
aS'tcs'
p4048
aS'sarbanes oxley'
p4049
aS'c-sharp'
p4050
aS'unary'
p4051
aS'tco'
p4052
aS'abap'
p4053
aS'mft'
p4054
aS'qoe or qox'
p4055
aS'tcg'
p4056
aS'quarter video graphics array'
p4057
aS'tcb'
p4058
aS'nanoscale biomechanics'
p4059
aS'national institutes of health'
p4060
aS'xp key changer'
p4061
aS'java speech api markup language'
p4062
aS'ieee standards association'
p4063
aS'bees algorithm'
p4064
aS'identity theft'
p4065
aS'accelerated hub architecture'
p4066
aS'hairpinning'
p4067
aS'sender pays'
p4068
aS'halo'
p4069
aS'ado'
p4070
aS'jbod'
p4071
aS'gmp'
p4072
aS'national id card'
p4073
aS'password strength meter'
p4074
aS'digital subscriber line'
p4075
aS'general fund enterprise business system'
p4076
aS'saturation'
p4077
aS'wear leveling'
p4078
aS'machine to machine'
p4079
aS'nvd'
p4080
aS'capitulation'
p4081
aS'joliet'
p4082
aS'call deflection'
p4083
aS'password'
p4084
aS'parameter ram (pram or parameter random access ...'
p4085
aS'frcp'
p4086
aS'joint commission'
p4087
aS'lawful interception'
p4088
aS'xss'
p4089
aS'packet filtering'
p4090
aS'k-map'
p4091
aS'langmuir blodgett film'
p4092
aS'xst'
p4093
aS'lambda architecture'
p4094
aS'xalan'
p4095
aS'ray tracing (raytracing, ray-tracing or ray cas...'
p4096
aS'xquery'
p4097
aS'radiology information system'
p4098
aS'xga 2'
p4099
aS'xsd'
p4100
aS'bearer channel'
p4101
aS'lenovo ideapad yoga'
p4102
aS'page'
p4103
aS'unstructured supplementary service data'
p4104
aS'ibm mobilefirst platform foundation (formerly i...'
p4105
aS'vsp'
p4106
aS'offline folder file'
p4107
aS'point-of-sale data, pos data'
p4108
aS'handtop'
p4109
aS'kde'
p4110
aS'vhdci'
p4111
aS'parallel processing software'
p4112
aS'aws mfa'
p4113
aS'vsb'
p4114
aS'babbage'
p4115
aS'offloaded data transfer'
p4116
aS'passive ftp'
p4117
aS'data center hot aisle containment'
p4118
aS'fair opportunity'
p4119
aS'p3p'
p4120
aS'kilobit'
p4121
aS'identity governance'
p4122
aS'lead'
p4123
aS'circular economy'
p4124
aS'accessenum'
p4125
aS'bayesian logic'
p4126
aS'value added reseller'
p4127
aS'camera recorder'
p4128
aS'earnings before interest taxes depreciation and...'
p4129
aS'e-mail'
p4130
aS'leap'
p4131
aS'geotargeting'
p4132
aS'wdsc'
p4133
aS'learning path: transmission methods'
p4134
aS'hard copy'
p4135
aS'yellow book'
p4136
aS'underwater rov (underwater remotely operated ve...'
p4137
aS'high-availability storage'
p4138
aS'vcsel'
p4139
aS'e-prescribing incentive program'
p4140
aS'g-cloud'
p4141
aS'nanotransistor'
p4142
aS'federated identity management'
p4143
aS'octave'
p4144
aS'acronym'
p4145
aS'identity federation'
p4146
aS'mitm'
p4147
aS'general packet radio services'
p4148
aS'hard error'
p4149
aS'java'
p4150
aS'mahindra satyam'
p4151
aS'aws multi-factor authentication'
p4152
aS'magnetic resonance imaging'
p4153
aS'iframe overlay'
p4154
aS'fast guide to helpful tips'
p4155
aS'foip protocol'
p4156
aS'telecentre'
p4157
aS'learning path: crm (customer relationship manag...'
p4158
aS'ube'
p4159
aS'nda'
p4160
aS'odf'
p4161
aS'qvga'
p4162
aS'rarp'
p4163
aS'caller id spoofing'
p4164
aS'wavelet'
p4165
aS'facebook "like" button'
p4166
aS'3-tier application'
p4167
aS'a-weighted decibels'
p4168
aS'nds'
p4169
aS'geek speak'
p4170
aS'java champion'
p4171
aS'nhii'
p4172
aS'world wide web consortium'
p4173
aS'sales performance management'
p4174
aS'owd'
p4175
aS'quad high definition'
p4176
aS'native cloud application'
p4177
aS'queries per second'
p4178
aS'national technical research organisation'
p4179
aS'ubl'
p4180
aS'z/vm'
p4181
aS'center for internet security'
p4182
aS'eink'
p4183
aS'hayes command set'
p4184
aS'e1, e2, e3...'
p4185
aS'van'
p4186
aS'on-screen keyboard'
p4187
aS'ad hoc testing'
p4188
aS'aarp'
p4189
aS'salesforce appexchange'
p4190
aS'ultra-mobile personal computer (umpc or ultra-m...'
p4191
aS'jini'
p4192
aS'vad'
p4193
aS'macintosh'
p4194
aS'ieee-sa'
p4195
aS'magnetoresistive head technology'
p4196
aS'3-d tv'
p4197
aS'leapfrog migration'
p4198
aS'sap gateway'
p4199
aS'var'
p4200
aS'warehouse management system'
p4201
aS'garbage collection'
p4202
aS'glib'
p4203
aS'ogsa'
p4204
aS'pasta theory of programming'
p4205
aS'eam'
p4206
aS'managed service provider'
p4207
aS'extensible open router platform'
p4208
aS'e-voting'
p4209
aS'hash buster'
p4210
aS'java telephony application programming interface'
p4211
aS'backscatting'
p4212
aS'random number'
p4213
aS'gain'
p4214
aS'managed file transfer'
p4215
aS'oauth'
p4216
aS'eap'
p4217
aS'volume, variety and velocity'
p4218
aS'ha'
p4219
aS'beeper'
p4220
aS'object management group'
p4221
aS'ubuntu 8.04 lts server edition'
p4222
aS'geocaching'
p4223
aS'uncertainty principle'
p4224
aS'a-law'
p4225
aS'java api for xml based rpc'
p4226
aS'uddi (universal description, discovery, and int...'
p4227
aS'2.5g'
p4228
aS'zv port'
p4229
aS'technobabble'
p4230
aS'3d nand flash'
p4231
aS'dmz'
p4232
aS'yet another setup tool'
p4233
aS'bayonet neil-concelman'
p4234
aS'passive candidate'
p4235
aS'ad cs'
p4236
aS'vbnet'
p4237
aS'unified storage'
p4238
aS'fast clear down'
p4239
aS'xerox'
p4240
aS'keep it simple, stupid'
p4241
aS'kilowatt-hour'
p4242
aS'unified communications as a service'
p4243
aS'fast guide: sql server 2000 commands'
p4244
aS'query by example'
p4245
aS'jd edwards enterpriseone'
p4246
aS'qnap systems inc. (quality network appliance pr...'
p4247
aS'campus'
p4248
aS'unique device identifier'
p4249
aS'electronic form'
p4250
aS'unique identifier'
p4251
aS'lemon wallet'
p4252
aS'hash based message authentication code'
p4253
aS'calibration'
p4254
aS'unstructured text'
p4255
aS'job hopper'
p4256
aS'42'
p4257
aS'odca'
p4258
aS'ramac (random access method of accounting and c...'
p4259
aS'extensible application markup language'
p4260
aS'ultracapacitor'
p4261
aS'extensible rights markup language'
p4262
aS'technology-assisted review'
p4263
aS'para-site'
p4264
aS'xml metadata interchange'
p4265
aS'accessibility testing'
p4266
aS'acrylic'
p4267
aS'parthenogenesis'
p4268
aS'appletalk address resolution protocol'
p4269
aS'k scale for internet addiction'
p4270
aS'extensible markup language'
p4271
aS'man-in-the-middle attack'
p4272
aS'upcycling'
p4273
aS'zoopraxiscope'
p4274
aS'hd-sdi downconverter'
p4275
aS'bare-metal provisioning'
p4276
aS'rdma'
p4277
aS'wake on lan'
p4278
aS'magnetic stripe reader'
p4279
aS'hadoop 2'
p4280
aS'ghost'
p4281
aS'racemi'
p4282
aS'bci'
p4283
aS'4x'
p4284
aS'gan'
p4285
aS'jscript'
p4286
aS'basel committee on banking supervision'
p4287
aS'zone-density recording'
p4288
aS'inter-asterisk exchange protocol'
p4289
aS'bcc'
p4290
aS'mapping service'
p4291
aS'sap s/4hana'
p4292
aS'occupational safety and health administration'
p4293
aS'cache engine'
p4294
aS'4g'
p4295
aS'balanced scorecard'
p4296
aS'bcp'
p4297
aS'landing page'
p4298
aS'federal risk and authorization program'
p4299
atRp4300
.