c__builtin__
set
p1
((lp2
S'kernel'
p3
aS'shell script'
p4
aS'solaris'
p5
aS'nosql'
p6
aS'app'
p7
aS'visual c++'
p8
aS'visual basic .net'
p9
aS'unix'
p10
aS'asp'
p11
aS'zzw3'
p12
aS'linux'
p13
aS'ic'
p14
aS'perl'
p15
aS'vmware'
p16
aS'xml'
p17
aS'mssql'
p18
aS'git'
p19
aS'java'
p20
aS'big data'
p21
aS'asp.net'
p22
aS'ruby'
p23
aS'delphi'
p24
aS'struts'
p25
aS'hadoop'
p26
aS'android app'
p27
aS'c#'
p28
aS'json'
p29
aS'r'
aS'c#.net'
p30
aS'matlab'
p31
aS'uml'
p32
aS'shell'
p33
aS'mcse'
p34
aS'css'
p35
aS'android'
p36
aS'hibernate'
p37
aS'windows nt'
p38
aS'python'
p39
aS'javascript'
p40
aS'ios'
p41
aS'c'
aS'automation'
p42
aS'mfc'
p43
aS'ajax'
p44
aS'jsp'
p45
aS'html5'
p46
aS'sql'
p47
aS'mcu'
p48
aS'db2'
p49
aS'servlet'
p50
aS'visual basic'
p51
aS'ux'
p52
aS'jquery'
p53
aS'j2ee'
p54
aS'postgresql'
p55
aS'embedded'
p56
aS'dhtml'
p57
aS'sql server'
p58
aS'mysql'
p59
aS'vb.net'
p60
aS'java script'
p61
aS'.net'
p62
aS'programming'
p63
aS'html'
p64
aS'c++'
p65
aS'php'
p66
aS'labview'
p67
aS'mvc'
p68
aS'ui'
p69
aS'vbscript'
p70
aS'tomcat'
p71
aS'embedded system'
p72
aS'c++.net'
p73
aS'etl'
p74
aS'visual studio .net'
p75
atRp76
.