c__builtin__
set
p1
((lp2
S'tcp ip'
p3
aS'windows xp'
p4
aS'app'
p5
aS'linux'
p6
aS'outlook'
p7
aS'zzw3'
p8
aS'mysql'
p9
aS'xml'
p10
aS'java'
p11
aS'asp.net'
p12
aS'c#.net'
p13
aS'c#'
p14
aS'html'
p15
aS'android'
p16
aS'css'
p17
aS'asp'
p18
aS'python'
p19
aS'windows server'
p20
aS'javascript'
p21
aS'ios'
p22
aS'ajax'
p23
aS'jsp'
p24
aS'sql'
p25
aS'php'
p26
aS'jquery'
p27
aS'c'
aS'erp'
p28
aS'java script'
p29
aS'.net'
p30
aS'c++'
p31
aS'oracle'
p32
aS'visual basic'
p33
atRp34
.