c__builtin__
set
p1
((lp2
S'photoshop'
p3
aS'tcp ip'
p4
aS'windows xp'
p5
aS'app'
p6
aS'visual c++'
p7
aS'outlook'
p8
aS'visual basic .net'
p9
aS'unix'
p10
aS'visual studio'
p11
aS'zzw3'
p12
aS'linux'
p13
aS'sap'
p14
aS'cloud'
p15
aS'xml'
p16
aS'java'
p17
aS'asp.net'
p18
aS'struts'
p19
aS'c#.net'
p20
aS'c#'
p21
aS'html'
p22
aS'vmware'
p23
aS'uml'
p24
aS'shell'
p25
aS'css'
p26
aS'android'
p27
aS'asp'
p28
aS'windows nt'
p29
aS'python'
p30
aS'windows server'
p31
aS'javascript'
p32
aS'ios'
p33
aS'j2ee'
p34
aS'ajax'
p35
aS'jsp'
p36
aS'html5'
p37
aS'sql'
p38
aS'mcu'
p39
aS'php'
p40
aS'visual basic'
p41
aS'jquery'
p42
aS'c'
aS'erp'
p43
aS'embedded'
p44
aS'dhtml'
p45
aS'sql server'
p46
aS'mysql'
p47
aS'vb.net'
p48
aS'java script'
p49
aS'.net'
p50
aS'programming'
p51
aS'c++'
p52
aS'mvc'
p53
aS'ui'
p54
aS'oracle'
p55
aS'security'
p56
atRp57
.