c__builtin__
set
p1
((lp2
S'photoshop'
p3
aS'tcp ip'
p4
aS'struts'
p5
aS'cisco'
p6
aS'windows xp'
p7
aS'firewall'
p8
aS'app'
p9
aS'visual c++'
p10
aS'pos'
p11
aS'visual basic .net'
p12
aS'unix'
p13
aS'visual studio'
p14
aS'zzw3'
p15
aS'linux'
p16
aS'ic'
p17
aS'sap'
p18
aS'quality'
p19
aS'arm'
p20
aS'cloud'
p21
aS'windows nt'
p22
aS'xml'
p23
aS'git'
p24
aS'java'
p25
aS'asp.net'
p26
aS'delphi'
p27
aS'firmware'
p28
aS'android app'
p29
aS'access'
p30
aS'bios'
p31
aS'r'
aS'c#.net'
p32
aS'vmware'
p33
aS'dreamweaver'
p34
aS'visio'
p35
aS'uml'
p36
aS'outlook'
p37
aS'visual studio .net'
p38
aS'css'
p39
aS'android'
p40
aS'asp'
p41
aS'shell'
p42
aS'dns'
p43
aS'python'
p44
aS'windows server'
p45
aS'javascript'
p46
aS'ios'
p47
aS'j2ee'
p48
aS'c#'
p49
aS'perl'
p50
aS'ajax'
p51
aS'jsp'
p52
aS'html5'
p53
aS'mes'
p54
aS'sql'
p55
aS'mcu'
p56
aS'php'
p57
aS'ruby'
p58
aS'visual basic'
p59
aS'jquery'
p60
aS'c'
aS'erp'
p61
aS'embedded'
p62
aS'dhtml'
p63
aS'sql server'
p64
aS'mysql'
p65
aS'vb.net'
p66
aS'java script'
p67
aS'.net'
p68
aS'programming'
p69
aS'html'
p70
aS'c++'
p71
aS'mvc'
p72
aS'ui'
p73
aS'oracle'
p74
aS'tomcat'
p75
aS'security'
p76
aS'oop'
p77
atRp78
.