c__builtin__
set
p1
((lp2
S'mfc'
p3
aS'solaris'
p4
aS'nosql'
p5
aS'app'
p6
aS'visual c++'
p7
aS'unix'
p8
aS'linux'
p9
aS'c#.net'
p10
aS'xml'
p11
aS'git'
p12
aS'java'
p13
aS'big data'
p14
aS'servlet'
p15
aS'struts'
p16
aS'perl'
p17
aS'json'
p18
aS'matlab'
p19
aS'shell'
p20
aS'dhtml'
p21
aS'c#'
p22
aS'j2ee'
p23
aS'mcu'
p24
aS'db2'
p25
aS'ruby'
p26
aS'jquery'
p27
aS'ux'
p28
aS'embedded'
p29
aS'.net'
p30
aS'c++'
p31
aS'labview'
p32
aS'r'
aS'ui'
p33
aS'visual basic'
p34
aS'kernel'
p35
aS'mysql'
p36
aS'visual basic .net'
p37
aS'objective-c'
p38
aS'hibernate'
p39
aS'ic'
p40
aS'vmware'
p41
aS'asp.net'
p42
aS'delphi'
p43
aS'shell script'
p44
aS'hadoop'
p45
aS'python'
p46
aS'html'
p47
aS'uml'
p48
aS'android'
p49
aS'mcse'
p50
aS'css'
p51
aS'windows nt'
p52
aS'javascript'
p53
aS'ios'
p54
aS'automation'
p55
aS'ajax'
p56
aS'jsp'
p57
aS'html5'
p58
aS'sql'
p59
aS'php'
p60
aS'mssql'
p61
aS'c'
aS'postgresql'
p62
aS'tomcat'
p63
aS'sql server'
p64
aS'vb.net'
p65
aS'visual studio .net'
p66
aS'mvc'
p67
aS'vbscript'
p68
aS'c++.net'
p69
aS'etl'
p70
atRp71
.