c__builtin__
set
p1
((lp2
S'scm'
p3
aS'busybox'
p4
aS'bapi'
p5
aS'windows xp'
p6
aS'web service'
p7
aS'scc'
p8
aS'smr'
p9
aS'umts'
p10
aS'mp4'
p11
aS'bytecode'
p12
aS'system design'
p13
aS'user experience design'
p14
aS'ptt'
p15
aS'integrity'
p16
aS'scp'
p17
aS'content management'
p18
aS'scr'
p19
aS'rd'
p20
aS'security manager'
p21
aS'wms'
p22
aS'directory services'
p23
aS'apple push notification service'
p24
aS'rtos'
p25
aS'dsl'
p26
aS'c6'
p27
aS'tn'
p28
aS'usability'
p29
aS'matlab'
p30
aS'spec'
p31
aS'ta'
p32
aS'application integration'
p33
aS'code review'
p34
aS'software quality assurance'
p35
aS'faq'
p36
aS'computer networking'
p37
aS'risc'
p38
aS'mpi'
p39
aS'replication'
p40
aS'wimax'
p41
aS'balancing'
p42
aS'mps'
p43
aS'network server'
p44
aS'an application'
p45
aS'edm'
p46
aS'servlet'
p47
aS'tagging'
p48
aS'android tablet'
p49
aS'unity3d'
p50
aS'cable'
p51
aS'cmc'
p52
aS'upload'
p53
aS'smb'
p54
aS'vector'
p55
aS'delegate'
p56
aS'it consultant'
p57
aS'gc'
p58
aS'vpn server'
p59
aS'cms'
p60
aS'ups'
p61
aS'mp3'
p62
aS'secure http'
p63
aS'webdav'
p64
aS'netbeans'
p65
aS'network connectivity'
p66
aS'vb .net'
p67
aS'adobe acrobat'
p68
aS'vbscript'
p69
aS'batch'
p70
aS'systems analysis'
p71
aS'zero'
p72
aS'street'
p73
aS'virtualization'
p74
aS'network infrastructure'
p75
aS'udp'
p76
aS'gm'
p77
aS'mpeg'
p78
aS'enterprise server'
p79
aS'mnd'
p80
aS'cloud services'
p81
aS'asic'
p82
aS'nand'
p83
aS'decoding'
p84
aS'mainframe'
p85
aS'mac os'
p86
aS'mcitp'
p87
aS'microchip'
p88
aS'ner'
p89
aS'method'
p90
aS'dashboard'
p91
aS'software development life cycle'
p92
aS'hash'
p93
aS'server colocation'
p94
aS'test script'
p95
aS'machine vision'
p96
aS'tcl tk'
p97
aS'component'
p98
aS'answers'
p99
aS'codebase'
p100
aS'modular'
p101
aS'provisioning'
p102
aS'mes'
p103
aS'b2c'
p104
aS'b2b'
p105
aS'information technology'
p106
aS'application security'
p107
aS'vulnerability'
p108
aS'wdm'
p109
aS'sla'
p110
aS'function key'
p111
aS'wds'
p112
aS'drm'
p113
aS'advertising'
p114
aS'network monitoring'
p115
aS'iis'
p116
aS'computer architecture'
p117
aS'hw'
p118
aS'search engine optimization'
p119
aS'jailbreak'
p120
aS'wifi'
p121
aS'unix'
p122
aS'vc'
p123
aS'ha storage'
p124
aS'appliances'
p125
aS'service desk'
p126
aS'mobile advertising'
p127
aS'device driver'
p128
aS'landscape'
p129
aS'management software'
p130
aS'open source'
p131
aS'foxpro'
p132
aS'instant message'
p133
aS'technology services'
p134
aS'rhel'
p135
aS'dns'
p136
aS'vi'
p137
aS'hardware troubleshooting'
p138
aS'project planning'
p139
aS'authorization'
p140
aS'memory bus'
p141
aS'jmx'
p142
aS'relay'
p143
aS'jms'
p144
aS'yahoo'
p145
aS'jpg'
p146
aS'vpc'
p147
aS'vpn'
p148
aS'webmaster'
p149
aS'network administrator'
p150
aS'md'
p151
aS'erp'
p152
aS'mb'
p153
aS'database security'
p154
aS'eclipse'
p155
aS'junit'
p156
aS'erd'
p157
aS'mv'
p158
aS'san security'
p159
aS'mp'
p160
aS'transparency'
p161
aS'visual basic'
p162
aS'root'
p163
aS'scripting'
p164
aS'atm'
p165
aS'skype'
p166
aS'smtp'
p167
aS'uat'
p168
aS'software development process'
p169
aS'apache tomcat'
p170
aS'scheduling'
p171
aS'service provider'
p172
aS'csd'
p173
aS'sharepoint'
p174
aS'csa'
p175
aS'solaris'
p176
aS'csb'
p177
aS'sata'
p178
aS'c sharp'
p179
aS'actionscript'
p180
aS'c#.net1.'
p181
aS'record'
p182
aS'csv'
p183
aS'product release'
p184
aS'css'
p185
aS'csr'
p186
aS'fp'
p187
aS'gaming'
p188
aS'mpm'
p189
aS'modulation'
p190
aS'service levels'
p191
aS'lag'
p192
aS'storage capacity'
p193
aS'fb'
p194
aS'fc'
p195
aS'cognos'
p196
aS'fi'
p197
aS'parallel'
p198
aS'workstation'
p199
aS'business systems analyst'
p200
aS'pv'
p201
aS'wins'
p202
aS'bootstrap'
p203
aS'spring framework'
p204
aS'django'
p205
aS'domain name'
p206
aS'scsi'
p207
aS'industrial software'
p208
aS'storage device'
p209
aS'data aggregation'
p210
aS'vfp'
p211
aS'operations'
p212
aS'photoshop'
p213
aS'network security'
p214
aS'feedback'
p215
aS'xmpp'
p216
aS'jpeg'
p217
aS'pascal'
p218
aS'interpersonal'
p219
aS'concurrency'
p220
aS'responsive'
p221
aS'system configuration'
p222
aS'serdes'
p223
aS'enterprise class'
p224
aS'pcs'
p225
aS'fix'
p226
aS'unity'
p227
aS'edge'
p228
aS'computer system'
p229
aS'ims'
p230
aS'glassfish'
p231
aS'voip'
p232
aS'pcb'
p233
aS'fraud detection'
p234
aS'mobile device'
p235
aS'java object'
p236
aS'rtsp'
p237
aS'motivated'
p238
aS'software framework'
p239
aS'security architecture'
p240
aS'safe'
p241
aS'ceh'
p242
aS'orcad'
p243
aS'refactoring'
p244
aS'communities'
p245
aS'ip camera'
p246
aS'parallel processing'
p247
aS'odbc'
p248
aS'intelligent platform management interface'
p249
aS'mcsd'
p250
aS'token'
p251
aS'web development'
p252
aS'continuous delivery'
p253
aS'mobile payment'
p254
aS'hadoop ecosystem'
p255
aS'gprs'
p256
aS'accelerator'
p257
aS'mdm'
p258
aS'core switch'
p259
aS'knowledge management'
p260
aS'idea'
p261
aS'mapreduce'
p262
aS'array'
p263
aS'time to market'
p264
aS'ftp'
p265
aS'catia'
p266
aS'quality'
p267
aS'ha'
p268
aS'smt'
p269
aS'sms'
p270
aS'dss'
p271
aS'dsp'
p272
aS'semiconductor'
p273
aS'rf'
p274
aS'race'
p275
aS'ra'
p276
aS'sdlc'
p277
aS'distributed system'
p278
aS'rm'
p279
aS'offline'
p280
aS'smd'
p281
aS'dsc'
p282
aS'ado.net'
p283
aS'disk'
p284
aS'network design'
p285
aS'management information system'
p286
aS'localization'
p287
aS'ntp'
p288
aS'data scientist'
p289
aS'free'
p290
aS'revision control'
p291
aS'asa'
p292
aS'cookie'
p293
aS'mobile'
p294
aS'model view controller'
p295
aS'visual foxpro'
p296
aS'estimate'
p297
aS'gameplay'
p298
aS'acrobat'
p299
aS'bash'
p300
aS'network performance'
p301
aS'ate'
p302
aS'thread'
p303
aS'ata'
p304
aS'drupal'
p305
aS'atl'
p306
aS'isp'
p307
aS'silicon'
p308
aS'mvc'
p309
aS'iso'
p310
aS'isn'
p311
aS'circuit'
p312
aS'unit test'
p313
aS'cdma'
p314
aS'microsoft azure'
p315
aS'benchmarking'
p316
aS'windows ce'
p317
aS'powerbuilder'
p318
aS'features'
p319
aS'system programming'
p320
aS'google play'
p321
aS'load balancing'
p322
aS'dfs'
p323
aS'photoimpact'
p324
aS'production environment'
p325
aS'encryption algorithm'
p326
aS'wpf'
p327
aS'gpo'
p328
aS'vhdl'
p329
aS'tor'
p330
aS'tos'
p331
aS'top'
p332
aS'struts'
p333
aS'wireshark'
p334
aS'rails'
p335
aS'domain controller'
p336
aS'weblogic'
p337
aS'gpu'
p338
aS'thin client'
p339
aS'system requirements'
p340
aS'gps'
p341
aS'text mining'
p342
aS'it strategy'
p343
aS'relationship'
p344
aS'rup'
p345
aS'microsoft windows'
p346
aS'raid controller'
p347
aS'apache spark'
p348
aS'windows embedded'
p349
aS'transaction'
p350
aS'nca'
p351
aS'jquery'
p352
aS'regular expression'
p353
aS'cable modem'
p354
aS'data collection'
p355
aS'aaa'
p356
aS'software life cycle'
p357
aS'evdo'
p358
aS'stl'
p359
aS'solution architecture'
p360
aS'final'
p361
aS'development environment'
p362
aS'embedded system'
p363
aS'restful'
p364
aS'continuous integration'
p365
aS'enhancement'
p366
aS'bridge'
p367
aS'lbs'
p368
aS'systems analyst'
p369
aS'massively parallel processing'
p370
aS'rac'
p371
aS'ran'
p372
aS'spectrum'
p373
aS'business intelligence'
p374
aS'system integration'
p375
aS'angularjs'
p376
aS'amazon web services'
p377
aS'always on'
p378
aS'same time'
p379
aS'latency'
p380
aS'lib'
p381
aS'user experience'
p382
aS'software architecture'
p383
aS'rhce'
p384
aS'firmware'
p385
aS'pmi'
p386
aS'toeic'
p387
aS'command'
p388
aS'wireless network'
p389
aS'rich media'
p390
aS'resource allocation'
p391
aS'server os'
p392
aS'memory'
p393
aS'jsf'
p394
aS'rtd'
p395
aS'index'
p396
aS'service level agreement'
p397
aS'data warehouse'
p398
aS'bsp'
p399
aS'architects'
p400
aS'bsm'
p401
aS'virus'
p402
aS'jsp'
p403
aS'moss'
p404
aS'scripts'
p405
aS'bsd'
p406
aS'data architect'
p407
aS'bsc'
p408
aS'consumer electronics'
p409
aS'audio'
p410
aS'dom'
p411
aS'tpm'
p412
aS'partition'
p413
aS'km'
p414
aS'microsoft project'
p415
aS'tps'
p416
aS'search engine'
p417
aS'caching'
p418
aS'dos'
p419
aS'baseband'
p420
aS'virtual machine'
p421
aS'hyper'
p422
aS'rtc'
p423
aS'xcode'
p424
aS'xdsl'
p425
aS'visual studio'
p426
aS'vulnerability assessment'
p427
aS'rtp'
p428
aS'tft'
p429
aS'internet security'
p430
aS'android app'
p431
aS'availability'
p432
aS'docsis'
p433
aS'access'
p434
aS'itil'
p435
aS'virtual server'
p436
aS'layout'
p437
aS'big data'
p438
aS'distributed'
p439
aS'console'
p440
aS'dwdm'
p441
aS'ldap'
p442
aS'ocp'
p443
aS'mobile network'
p444
aS'dm'
p445
aS'microprocessor'
p446
aS'cryptography'
p447
aS'ad domain'
p448
aS'android market'
p449
aS'de'
p450
aS'dc'
p451
aS'da'
p452
aS'next'
p453
aS'amazon'
p454
aS'synchronization'
p455
aS'downtime'
p456
aS'dv'
p457
aS'dw'
p458
aS'netflow'
p459
aS'dr'
p460
aS'compiler'
p461
aS'rfp'
p462
aS'bar'
p463
aS'stb'
p464
aS'ietf'
p465
aS'emi'
p466
aS'abap'
p467
aS'public'
p468
aS'rfc'
p469
aS'zabbix'
p470
aS'architecture'
p471
aS'ems'
p472
aS'object oriented programming'
p473
aS'rfi'
p474
aS'embedded device'
p475
aS'high availability'
p476
aS'crm'
p477
aS'arp'
p478
aS'set'
p479
aS'active directory'
p480
aS'motherboard'
p481
aS'peripheral'
p482
aS'startup'
p483
aS'sku'
p484
aS'radius'
p485
aS'seo'
p486
aS'web designer'
p487
aS'microcode'
p488
aS'foss'
p489
aS'application server'
p490
aS'techniques'
p491
aS'capacity'
p492
aS'hdmi'
p493
aS'delphi'
p494
aS'mobile games'
p495
aS'familiarity'
p496
aS'router firmware'
p497
aS'web developer'
p498
aS'mmc'
p499
aS'vendor management'
p500
aS'contact us'
p501
aS'ad hoc'
p502
aS'dedicated server'
p503
aS'wf'
p504
aS'server software'
p505
aS'creating'
p506
aS'xslt'
p507
aS'javascript'
p508
aS'it infrastructure'
p509
aS'scalability'
p510
aS'oms'
p511
aS'html5'
p512
aS'wp'
p513
aS'interface'
p514
aS'j2se'
p515
aS'user exit'
p516
aS'inter process communication'
p517
aS'topology'
p518
aS'j2ee'
p519
aS'license'
p520
aS'web client'
p521
aS'dalvik'
p522
aS'load testing'
p523
aS'pdm'
p524
aS'customer support'
p525
aS'context'
p526
aS'integrated software'
p527
aS'pdf'
p528
aS'tftp'
p529
aS'audio codec'
p530
aS'com'
p531
aS'data integration'
p532
aS'con'
p533
aS'switching'
p534
aS'geolocation'
p535
aS'data mart'
p536
aS'debugging'
p537
aS'simple'
p538
aS'soap'
p539
aS'distributed computing'
p540
aS'community'
p541
aS'loader'
p542
aS'lambda architecture'
p543
aS'c shell'
p544
aS'data access'
p545
aS'linux'
p546
aS'proof of concept'
p547
aS'panel'
p548
aS'backend'
p549
aS'recommendation engine'
p550
aS'java'
p551
aS'pw'
p552
aS'sem'
p553
aS'basis'
p554
aS'infotainment'
p555
aS'deep learning'
p556
aS'virtual reality'
p557
aS'patch'
p558
aS'extraction'
p559
aS'pg'
p560
aS'dreamweaver'
p561
aS'tutorials'
p562
aS'pi'
p563
aS'adc'
p564
aS'website'
p565
aS'rich client'
p566
aS'information management system'
p567
aS'data warehouse architect'
p568
aS'great'
p569
aS'web hosting'
p570
aS'maps'
p571
aS'pxe'
p572
aS'wintel'
p573
aS'feasibility study'
p574
aS'mcu'
p575
aS'mct'
p576
aS'end user'
p577
aS'mcp'
p578
aS'commerce'
p579
aS'iterative development'
p580
aS'gnu'
p581
aS'radio frequency'
p582
aS'whql'
p583
aS'cts'
p584
aS'mpls'
p585
aS'hacking'
p586
aS'air'
p587
aS'aim'
p588
aS'aio'
p589
aS'optimization'
p590
aS'technical support'
p591
aS'hypervisor'
p592
aS'product management'
p593
aS'dms'
p594
aS'anchor'
p595
aS'procedure'
p596
aS'vod'
p597
aS'compliance'
p598
aS'ir'
p599
aS'rip'
p600
aS'image sensor'
p601
aS'database administration'
p602
aS'network management'
p603
aS'im'
p604
aS'il'
p605
aS'ia'
p606
aS'ic'
p607
aS'ie'
p608
aS'id'
p609
aS'lock screen'
p610
aS'ccnp'
p611
aS'baseline'
p612
aS'patent'
p613
aS'msql'
p614
aS'couchdb'
p615
aS'object storage'
p616
aS'hadoop'
p617
aS'knowledge management system'
p618
aS'quant'
p619
aS'ccna'
p620
aS'ipmi'
p621
aS'modification'
p622
aS'internet of things'
p623
aS'mcse'
p624
aS'storage networking'
p625
aS'social platform'
p626
aS'stored procedure'
p627
aS'raid'
p628
aS'x86'
p629
aS'juniper'
p630
aS'hana'
p631
aS'live support'
p632
aS'qualifications'
p633
aS'communication software'
p634
aS'portal'
p635
aS'mips'
p636
aS'hipaa'
p637
aS'stack'
p638
aS'task'
p639
aS'pattern recognition'
p640
aS'continuous improvement'
p641
aS'disk array'
p642
aS'ipsec vpn'
p643
aS'practices'
p644
aS'program manager'
p645
aS'consistency'
p646
aS'docker'
p647
aS'i2c'
p648
aS'gsm'
p649
aS'help desk'
p650
aS'sap hana'
p651
aS'protocol'
p652
aS'mom'
p653
aS'laptop'
p654
aS'deployment'
p655
aS'networks'
p656
aS'mid'
p657
aS'mysql'
p658
aS'best practice'
p659
aS'visualization'
p660
aS'hal'
p661
aS'tablet'
p662
aS'elb'
p663
aS'agile'
p664
aS'scalable'
p665
aS'kinect'
p666
aS'fortran'
p667
aS'vswitch'
p668
aS'winform'
p669
aS'network protocols'
p670
aS'video on demand'
p671
aS'foundation framework'
p672
aS'vendor'
p673
aS'design thinking'
p674
aS'microcontroller'
p675
aS'web office'
p676
aS'lcd'
p677
aS'private'
p678
aS'video compression'
p679
aS'opc'
p680
aS'bit'
p681
aS'designers'
p682
aS'social networking'
p683
aS'ipsec'
p684
aS'vcm'
p685
aS'activex'
p686
aS'semi'
p687
aS'signal'
p688
aS'bpm'
p689
aS'xbox'
p690
aS'web content management'
p691
aS'online marketing'
p692
aS'designing'
p693
aS'bpr'
p694
aS'android platform'
p695
aS'project management software'
p696
aS'system management'
p697
aS'security'
p698
aS'xaml'
p699
aS'linux kernel'
p700
aS'prototyping'
p701
aS'functional reactive programming'
p702
aS'project management'
p703
aS'system administrator'
p704
aS'distributed development'
p705
aS'communications'
p706
aS'broadband'
p707
aS'data migration'
p708
aS'saas'
p709
aS'ice'
p710
aS'gateway'
p711
aS'power user'
p712
aS'cnc'
p713
aS'web services'
p714
aS'uml'
p715
aS'hcm'
p716
aS'ict'
p717
aS'bd'
p718
aS'core'
p719
aS'teradata'
p720
aS'ba'
p721
aS'sfc'
p722
aS'barcode'
p723
aS'bi'
p724
aS'vdi'
p725
aS'bw'
p726
aS'plc'
p727
aS'content management system'
p728
aS'oem'
p729
aS'output'
p730
aS'post'
p731
aS'mssql'
p732
aS'pipeline'
p733
aS'postgresql'
p734
aS'uart'
p735
aS'private cloud'
p736
aS'ids'
p737
aS'simulation'
p738
aS'bgp'
p739
aS'user experience designer'
p740
aS'fcc'
p741
aS'xsl'
p742
aS'azure'
p743
aS'commit'
p744
aS'j2me'
p745
aS'ide'
p746
aS'microsoft office'
p747
aS'web programming'
p748
aS'ida'
p749
aS'soa'
p750
aS'soc'
p751
aS'garbage'
p752
aS'presence'
p753
aS'parsing'
p754
aS'sop'
p755
aS'contingency plan'
p756
aS'haskell'
p757
aS'troubleshooting'
p758
aS'ppt'
p759
aS'direct3d'
p760
aS'msp'
p761
aS'manual testing'
p762
aS'clustering'
p763
aS'wan'
p764
aS'jdbc'
p765
aS'gis'
p766
aS'spam'
p767
aS'waf'
p768
aS'demand forecasting'
p769
aS'pabx'
p770
aS'bios'
p771
aS'heroku'
p772
aS'wordpress'
p773
aS'forward'
p774
aS'tcpdump'
p775
aS'functional testing'
p776
aS'wap'
p777
aS'responsive web design'
p778
aS'business process analysis'
p779
aS'fpga'
p780
aS'webcam'
p781
aS'paypal'
p782
aS'linq'
p783
aS'wireless'
p784
aS'heap'
p785
aS'sdn'
p786
aS'pwm'
p787
aS'static timing analysis'
p788
aS'fda'
p789
aS'csslp'
p790
aS'ux'
p791
aS'streaming'
p792
aS'network layer'
p793
aS'network software'
p794
aS'middleware'
p795
aS'jboss'
p796
aS'devices'
p797
aS'cross platform'
p798
aS'data architecture'
p799
aS'ul'
p800
aS'ui'
p801
aS'capacity planning'
p802
aS'in sap'
p803
aS'ug'
p804
aS'citrix xenserver'
p805
aS'uc'
p806
aS'constant'
p807
aS'classic'
p808
aS'microsoft exchange'
p809
aS'parser'
p810
aS'accessibility'
p811
aS'proven'
p812
aS'ddos'
p813
aS'chat'
p814
aS'organizational'
p815
aS'accounting'
p816
aS'network architecture'
p817
aS'acl'
p818
aS'facebook'
p819
aS'ni'
p820
aS'application performance'
p821
aS'web design'
p822
aS'nb'
p823
aS'nc'
p824
aS'excel'
p825
aS'cics'
p826
aS'nas'
p827
aS'windows forms'
p828
aS'nat'
p829
aS'digital'
p830
aS'jenkins'
p831
aS'best practices'
p832
aS'developers'
p833
aS'load balancing router'
p834
aS'nice'
p835
aS'mongodb'
p836
aS'mcdba'
p837
aS'kvm'
p838
aS'update'
p839
aS'build tool'
p840
aS'system time'
p841
aS'sql'
p842
aS'variable'
p843
aS'ess'
p844
aS'sqa'
p845
aS'bot'
p846
aS'svn'
p847
aS'help desk management'
p848
aS'independently'
p849
aS'disaster recovery'
p850
aS'dvi'
p851
aS'cloud computing'
p852
aS'scala'
p853
aS'youtube'
p854
aS'tomcat'
p855
aS'unit testing'
p856
aS'internet desktop'
p857
aS'oltp'
p858
aS'memory card'
p859
aS'oracle'
p860
aS'n1'
p861
aS'sniffer'
p862
aS'fabless'
p863
aS'session initiation protocol'
p864
aS'edc'
p865
aS'eda'
p866
aS'rom'
p867
aS'process management'
p868
aS'nlp'
p869
aS'lean'
p870
aS'oss'
p871
aS'edi'
p872
aS'wordperfect'
p873
aS'resistance'
p874
aS'framwork'
p875
aS'osi'
p876
aS'mobile web'
p877
aS'solution stack'
p878
aS'informix'
p879
aS'application firewall'
p880
aS'xen hypervisor'
p881
aS'query'
p882
aS'ror'
p883
aS'gl'
p884
aS'ux designer'
p885
aS'email server'
p886
aS'quality assurance'
p887
aS'jvm'
p888
aS'giga'
p889
aS'cdn'
p890
aS'smartphone'
p891
aS'string'
p892
aS'wcdma'
p893
aS'cocoa touch'
p894
aS'information security'
p895
aS'ccsp'
p896
aS'vpn firewall'
p897
aS'cellular'
p898
aS'join'
p899
aS'fan'
p900
aS'web form'
p901
aS'windows client'
p902
aS'transmission'
p903
aS'scripting language'
p904
aS'gui'
p905
aS'michael'
p906
aS'ruby on rails'
p907
aS'hive'
p908
aS'olap'
p909
aS'session'
p910
aS'diy'
p911
aS'asp'
p912
aS'hybrid cloud'
p913
aS'rack'
p914
aS'cgi'
p915
aS'tcp ip'
p916
aS'pmp'
p917
aS'design pattern'
p918
aS'pms'
p919
aS'cfd'
p920
aS'noise'
p921
aS'odm'
p922
aS'pmc'
p923
aS'pmo'
p924
aS'rrs'
p925
aS'port'
p926
aS'vmware'
p927
aS'windows nt'
p928
aS'problem management'
p929
aS'hdfs'
p930
aS'bdc'
p931
aS'video conferencing'
p932
aS'multimedia'
p933
aS'smart card'
p934
aS'blade server'
p935
aS'cell'
p936
aS'winrt'
p937
aS'template'
p938
aS'sdp'
p939
aS'relational'
p940
aS'isapi'
p941
aS'scada'
p942
aS'performant'
p943
aS'supporting'
p944
aS'bo'
p945
aS'led'
p946
aS'instant messaging'
p947
aS'microelectronics'
p948
aS'commercial'
p949
aS'velocity'
p950
aS'ecc'
p951
aS'ubuntu'
p952
aS'mobile app'
p953
aS'it asset management'
p954
aS'software development'
p955
aS'nids'
p956
aS'vba'
p957
aS'rfid reader'
p958
aS'rdp'
p959
aS'rds'
p960
aS'bu'
p961
aS'vb.net'
p962
aS'boot loader'
p963
aS'patch management'
p964
aS'hba'
p965
aS'host'
p966
aS'test automation'
p967
aS'software testing'
p968
aS'queue'
p969
aS'document management'
p970
aS'throughput'
p971
aS'bom'
p972
aS'rdc'
p973
aS'rdb'
p974
aS'modbus'
p975
aS'web page'
p976
aS'cti'
p977
aS'relation'
p978
aS'macintosh'
p979
aS'ipc'
p980
aS'physical security'
p981
aS'ip network'
p982
aS'firefox'
p983
aS'aps'
p984
aS'app'
p985
aS'bs'
p986
aS'sqlite'
p987
aS'test driven development'
p988
aS'ips'
p989
aS'dram'
p990
aS'backup and recovery'
p991
aS'battery'
p992
aS'plm'
p993
aS'cloud'
p994
aS'it governance'
p995
aS'social media'
p996
aS'fed'
p997
aS'usb'
p998
aS'computer network'
p999
aS'mss'
p1000
aS'perl'
p1001
aS'embedded linux'
p1002
aS'visio'
p1003
aS'netbios'
p1004
aS'msc'
p1005
aS'business logic'
p1006
aS'data management'
p1007
aS'ood'
p1008
aS'class diagram'
p1009
aS'performance management'
p1010
aS'conductor'
p1011
aS'video streaming'
p1012
aS'benchmark'
p1013
aS'visual j#'
p1014
aS'business process'
p1015
aS'oop'
p1016
aS'iic'
p1017
aS'cases'
p1018
aS'release plan'
p1019
aS'vlan'
p1020
aS'erp system'
p1021
aS'account'
p1022
aS'data source'
p1023
aS'dhtml'
p1024
aS'cas'
p1025
aS'car'
p1026
aS'functional programming'
p1027
aS'clients'
p1028
aS'machine learning'
p1029
aS'reverse engineering'
p1030
aS'wallet'
p1031
aS'tag'
p1032
aS'cam'
p1033
aS'cal'
p1034
aS'agile software development'
p1035
aS'cisa'
p1036
aS'linux pc'
p1037
aS'cad'
p1038
aS'protocol stack'
p1039
aS'tap'
p1040
aS'parallel computing'
p1041
aS'lock'
p1042
aS'chip'
p1043
aS'controller'
p1044
aS'vc++'
p1045
aS'agent'
p1046
aS'data model'
p1047
aS'web content'
p1048
aS'his'
p1049
aS'spc'
p1050
aS'vpn router'
p1051
aS'native'
p1052
aS'sip'
p1053
aS'monitoring'
p1054
aS'sit'
p1055
aS'handover'
p1056
aS'joomla'
p1057
aS'c#.net'
p1058
aS'android device'
p1059
aS'raspberry pi'
p1060
aS'lotus notes'
p1061
aS'xhtml'
p1062
aS'lotus domino'
p1063
aS'sim'
p1064
aS'asml'
p1065
aS'sd card'
p1066
aS'cloud app'
p1067
aS'npi'
p1068
aS'clone'
p1069
aS'collection'
p1070
aS'java ee'
p1071
aS'mac'
p1072
aS'notebook'
p1073
aS'it management'
p1074
aS'sns'
p1075
aS'communication protocol'
p1076
aS'aop'
p1077
aS'tier'
p1078
aS'nps'
p1079
aS'man'
p1080
aS'paas'
p1081
aS'cod'
p1082
aS'object relational mapping'
p1083
aS'ospf'
p1084
aS'sp'
p1085
aS'powerpoint'
p1086
aS'gamma'
p1087
aS'freebsd'
p1088
aS'sa'
p1089
aS'software'
p1090
aS'sd'
p1091
aS'acts'
p1092
aS'iptv'
p1093
aS'entity'
p1094
aS'quality control'
p1095
aS'statistical'
p1096
aS'cold'
p1097
aS'application architecture'
p1098
aS'ieee'
p1099
aS'vms'
p1100
aS'directx'
p1101
aS'volte'
p1102
aS'enterprise storage'
p1103
aS'gtc'
p1104
aS'monitor'
p1105
aS'arduino'
p1106
aS'banner'
p1107
aS'lamp'
p1108
aS'li'
p1109
aS'forms'
p1110
aS'window'
p1111
aS'cto'
p1112
aS'conformance'
p1113
aS'decryption'
p1114
aS'dac'
p1115
aS'python'
p1116
aS'mfc'
p1117
aS'indexing'
p1118
aS'hybrid cloud storage'
p1119
aS'noc'
p1120
aS'user interface design'
p1121
aS'dns server'
p1122
aS'safari'
p1123
aS'servers'
p1124
aS'power management'
p1125
aS'articles'
p1126
aS'term'
p1127
aS'workload'
p1128
aS'nfc'
p1129
aS'system software'
p1130
aS'.net'
p1131
aS'win32'
p1132
aS'merge'
p1133
aS'user interface'
p1134
aS'l2'
p1135
aS'mode'
p1136
aS'l1'
p1137
aS'kpi'
p1138
aS'identifier'
p1139
aS'enterprise software'
p1140
aS'oracle database'
p1141
aS'domain'
p1142
aS'mobile phone'
p1143
aS'ed'
p1144
aS'eg'
p1145
aS'ea'
p1146
aS'hlr'
p1147
aS'ec'
p1148
aS'eb'
p1149
aS'san switch'
p1150
aS'frequency'
p1151
aS'static'
p1152
aS'ex'
p1153
aS'citrix'
p1154
aS'programmer'
p1155
aS'hspa+'
p1156
aS'eq'
p1157
aS'project manager'
p1158
aS'hacker'
p1159
aS'container'
p1160
aS'openflow'
p1161
aS'return on investment'
p1162
aS'computer engineering'
p1163
aS'ejb'
p1164
aS'configuration management'
p1165
aS'android sdk'
p1166
aS'rel'
p1167
aS'ble'
p1168
aS'response time'
p1169
aS'visual studio .net'
p1170
aS'real time'
p1171
aS'product introduction'
p1172
aS'hibernate'
p1173
aS'embedded software'
p1174
aS'workflow'
p1175
aS'subject matter expert'
p1176
aS'cissp'
p1177
aS'data quality'
p1178
aS'ajax'
p1179
aS'git'
p1180
aS'emulation'
p1181
aS'regulatory'
p1182
aS'linux server'
p1183
aS'partner'
p1184
aS'visual basic .net'
p1185
aS'midi'
p1186
aS'standby'
p1187
aS'adapters'
p1188
aS'messaging'
p1189
aS'programming'
p1190
aS'int'
p1191
aS'dpi'
p1192
aS'lte'
p1193
aS'data security'
p1194
aS'security software'
p1195
aS'router'
p1196
aS'information architecture'
p1197
aS'eeprom'
p1198
aS'lambda'
p1199
aS'data integrity'
p1200
aS'wlan'
p1201
aS'release management'
p1202
aS'revenue'
p1203
aS'software configuration management'
p1204
aS'dcom'
p1205
aS'cmmi'
p1206
aS'human capital management'
p1207
aS'fast'
p1208
aS'bdd'
p1209
aS'software licensing'
p1210
aS'accountability'
p1211
aS'adobe flash'
p1212
aS'data storage'
p1213
aS'vsts'
p1214
aS'ian'
p1215
aS'ofdm'
p1216
aS'workaround'
p1217
aS'sgsn'
p1218
aS'fms'
p1219
aS'fm'
p1220
aS'attack'
p1221
aS'zend framework'
p1222
aS'load balancer'
p1223
aS'asset tracking'
p1224
aS'iaas'
p1225
aS'iap'
p1226
aS'mining'
p1227
aS'shell'
p1228
aS'hub'
p1229
aS'software program'
p1230
aS'sequence diagram'
p1231
aS'rsa'
p1232
aS'mobile application'
p1233
aS'cloud os'
p1234
aS'module'
p1235
aS'mems'
p1236
aS'web application firewall'
p1237
aS'ipad'
p1238
aS'public cloud'
p1239
aS'gpgpu'
p1240
aS'isolation'
p1241
aS'mbps'
p1242
aS'ssl vpn'
p1243
aS'garbage collection'
p1244
aS'r'
aS'software architect'
p1245
aS'enterprise network'
p1246
aS'database design'
p1247
aS'open vswitch'
p1248
aS'bts'
p1249
aS'browser'
p1250
aS'windows service'
p1251
aS'storage management software'
p1252
aS'san'
p1253
aS'app store'
p1254
aS'application framework'
p1255
aS'partnership'
p1256
aS'lin'
p1257
aS'sas'
p1258
aS'sar'
p1259
aS'sap'
p1260
aS'knowledge base'
p1261
aS'integration testing'
p1262
aS'wcs'
p1263
aS'sdr'
p1264
aS'min'
p1265
aS'asp.net'
p1266
aS'mic'
p1267
aS'lotusscript'
p1268
aS'si'
p1269
aS'arm'
p1270
aS'analog'
p1271
aS'online'
p1272
aS'j#'
p1273
aS'wan accelerator'
p1274
aS'markup language'
p1275
aS'channel'
p1276
aS'buffer'
p1277
aS'collaboration'
p1278
aS'aws'
p1279
aS'cdma2000'
p1280
aS'ftp server'
p1281
aS'beta'
p1282
aS'information system'
p1283
aS'web services software'
p1284
aS'class'
p1285
aS'terminal server'
p1286
aS'icon'
p1287
aS'native application'
p1288
aS'system testing'
p1289
aS'switch router'
p1290
aS'sql server'
p1291
aS'zfs'
p1292
aS'open data'
p1293
aS'microsoft word'
p1294
aS'mrp'
p1295
aS'ooad'
p1296
aS'databases'
p1297
aS'level design'
p1298
aS'shell script'
p1299
aS'qos'
p1300
aS'dba'
p1301
aS'ss7'
p1302
aS'visual c++'
p1303
aS'cloud infrastructure'
p1304
aS'spyware'
p1305
aS'information management'
p1306
aS'vcap'
p1307
aS'vmm'
p1308
aS'eap'
p1309
aS'product life cycle'
p1310
aS'network architect'
p1311
aS'dll'
p1312
aS'revision control system'
p1313
aS'bug tracking'
p1314
aS'ground'
p1315
aS'xml'
p1316
aS'partners'
p1317
aS'upgrade'
p1318
aS'ui design'
p1319
aS'sdh'
p1320
aS'cache'
p1321
aS'web scraping'
p1322
aS'terminal'
p1323
aS'tape'
p1324
aS'relational database'
p1325
aS'content provider'
p1326
aS'data modeling'
p1327
aS'operating system'
p1328
aS'personal computer'
p1329
aS'test plan'
p1330
aS'tft lcd'
p1331
aS'ssl'
p1332
aS'sso'
p1333
aS'interoperability'
p1334
aS'ssh'
p1335
aS'csrf'
p1336
aS'ssd'
p1337
aS'db2'
p1338
aS'geo'
p1339
aS'qs'
p1340
aS'ios sdk'
p1341
aS'qt'
p1342
aS'amazon ec2'
p1343
aS'c++'
p1344
aS'qa'
p1345
aS'qc'
p1346
aS'acceptance test'
p1347
aS'content delivery'
p1348
aS'cloud testing'
p1349
aS'management information systems'
p1350
aS'enterprise service bus'
p1351
aS'mail server'
p1352
aS'edge switch'
p1353
aS'view'
p1354
aS'wiki'
p1355
aS'kernel'
p1356
aS'software maintenance'
p1357
aS'frame'
p1358
aS'windows mobile'
p1359
aS'packet'
p1360
aS'dect'
p1361
aS'ce'
p1362
aS'rma'
p1363
aS'cim'
p1364
aS'system administration'
p1365
aS'audio streaming'
p1366
aS'rmi'
p1367
aS'manufacturer'
p1368
aS'lean startup'
p1369
aS'cis'
p1370
aS'labview'
p1371
aS'outsourcing'
p1372
aS'its'
p1373
aS'lua'
p1374
aS'state'
p1375
aS'dlp'
p1376
aS'verilog'
p1377
aS'product life cycle management'
p1378
aS'source code'
p1379
aS'utm'
p1380
aS'websphere'
p1381
aS'struts framework'
p1382
aS'trojan horse'
p1383
aS'gnss'
p1384
aS'wcf'
p1385
aS'configuration'
p1386
aS'swift'
p1387
aS'distribution'
p1388
aS'tls'
p1389
aS'sap business suite'
p1390
aS'data visualization'
p1391
aS'implementing'
p1392
aS'java script'
p1393
aS'use case'
p1394
aS'aqua'
p1395
aS'powershell'
p1396
aS'netweaver'
p1397
aS'sql injection'
p1398
aS'expression'
p1399
aS'etl'
p1400
aS'ci'
p1401
aS'ucs'
p1402
aS'cm'
p1403
aS'vxworks'
p1404
aS'firewall'
p1405
aS'ca'
p1406
aS'vdsl'
p1407
aS'pos'
p1408
aS'pop'
p1409
aS'cd'
p1410
aS'variety'
p1411
aS'bpcs'
p1412
aS'zzw3'
p1413
aS'data mining'
p1414
aS'table'
p1415
aS'poc'
p1416
aS'ad'
p1417
aS'scrum master'
p1418
aS'tuning'
p1419
aS'encryption'
p1420
aS'wpa2'
p1421
aS'vts'
p1422
aS'subscriber'
p1423
aS'mathematics'
p1424
aS'file system'
p1425
aS'pci'
p1426
aS'proxy server'
p1427
aS'enterprise instant messaging'
p1428
aS'process control'
p1429
aS'porting'
p1430
aS'prototype'
p1431
aS'engine'
p1432
aS'bmc'
p1433
aS'pic'
p1434
aS'rdbms'
p1435
aS'c#'
p1436
aS'secure coding'
p1437
aS'c'
aS'tcpip'
p1438
aS'pbx'
p1439
aS'bms'
p1440
aS'legacy'
p1441
aS'oracle db'
p1442
aS'otp'
p1443
aS'bonjour'
p1444
aS'ruby'
p1445
aS'cloud storage'
p1446
aS'protocols'
p1447
aS'case'
p1448
aS'eip'
p1449
aS'laser'
p1450
aS'bpml'
p1451
aS'onboarding'
p1452
aS'network troubleshooting'
p1453
aS'cvs'
p1454
aS'cursor'
p1455
aS'hdd'
p1456
aS'lan switching'
p1457
aS'ilo'
p1458
aS'intranet'
p1459
aS'eim'
p1460
aS'application development'
p1461
aS'va'
p1462
aS'layer'
p1463
aS'smart tv'
p1464
aS'iva'
p1465
aS'flex'
p1466
aS'demo'
p1467
aS'metric'
p1468
aS'squid'
p1469
aS'vm'
p1470
aS'linkedin'
p1471
aS'smart device'
p1472
aS'parse'
p1473
aS'telephony'
p1474
aS'vr'
p1475
aS'vs'
p1476
aS'cobol'
p1477
aS'ivr'
p1478
aS'lcd tv'
p1479
aS'rwd'
p1480
aS'file format'
p1481
aS'capture'
p1482
aS'uptime'
p1483
aS'pat'
p1484
aS'media'
p1485
aS'iscsi'
p1486
aS'connection'
p1487
aS'authentication'
p1488
aS'html'
p1489
aS'pad'
p1490
aS'work flow'
p1491
aS'android'
p1492
aS'pal'
p1493
aS'pam'
p1494
aS'root cause analysis'
p1495
aS'schemadesign'
p1496
aS'thunderbolt'
p1497
aS'rfid'
p1498
aS'ios'
p1499
aS'web server'
p1500
aS'automation'
p1501
aS'c++ programming language'
p1502
aS'dcm'
p1503
aS'hsdpa'
p1504
aS'it operations'
p1505
aS'php'
p1506
aS'wpa'
p1507
aS'amqp'
p1508
aS'database administrator'
p1509
aS'tracking'
p1510
aS'macro'
p1511
aS'markup'
p1512
aS'igp'
p1513
aS'ccs'
p1514
aS'data center'
p1515
aS'it services'
p1516
aS'dhcp'
p1517
aS'pda'
p1518
aS'ccd'
p1519
aS'model'
p1520
aS'modem'
p1521
aS'frontpage'
p1522
aS'assembly language'
p1523
aS'online service'
p1524
aS'nosql'
p1525
aS'android os'
p1526
aS'leadership skills'
p1527
aS'xen'
p1528
aS'rest'
p1529
aS'database developer'
p1530
aS'server room'
p1531
aS'tcl'
p1532
aS'stored'
p1533
aS'enterprise'
p1534
aS'change management'
p1535
aS'web'
p1536
aS'mosfet'
p1537
aS'samba'
p1538
aS'autocad'
p1539
aS'desktop'
p1540
aS'blog'
p1541
aS'cc'
p1542
aS'network administration'
p1543
aS'codec'
p1544
aS'dqa'
p1545
aS'ada'
p1546
aS'gms'
p1547
aS'ado'
p1548
aS'adm'
p1549
aS'smart'
p1550
aS'ami'
p1551
aS'data structure'
p1552
aS'saturation'
p1553
aS'nvr'
p1554
aS'content delivery network'
p1555
aS'ecr'
p1556
aS'windows server'
p1557
aS'amd'
p1558
aS'.net framework'
p1559
aS'office suite'
p1560
aS'sccm'
p1561
aS'dbase'
p1562
aS'virtualization software'
p1563
aS'call center'
p1564
aS'credentials'
p1565
aS'file server'
p1566
aS'xss'
p1567
aS'wbs'
p1568
aS'vmware esx'
p1569
aS'programmable logic controller'
p1570
aS'dvb'
p1571
aS'blackberry'
p1572
aS'pipelining'
p1573
aS'fiber optic'
p1574
aS'passionate'
p1575
aS'page'
p1576
aS'storage server'
p1577
aS'cisco'
p1578
aS'rpg'
p1579
aS'zigbee'
p1580
aS'twitter'
p1581
aS'library'
p1582
aS'gpib'
p1583
aS'loop'
p1584
aS'home'
p1585
aS'uefi'
p1586
aS'tms'
p1587
aS'random testing'
p1588
aS'overlay'
p1589
aS'ddr'
p1590
aS'redis'
p1591
aS'legal'
p1592
aS'ddk'
p1593
aS'augmented reality'
p1594
aS'esb'
p1595
aS'provides'
p1596
aS'ddl'
p1597
aS'ott'
p1598
aS'nfs'
p1599
aS'programming language'
p1600
aS'scrum'
p1601
aS'nms'
p1602
aS'tdd'
p1603
aS'maven'
p1604
aS'bar code'
p1605
aS'leadership'
p1606
aS'flow chart'
p1607
aS'new product development'
p1608
aS'software engineering'
p1609
aS'vb net'
p1610
aS'ok'
p1611
aS'socket'
p1612
aS'ace'
p1613
aS'package'
p1614
aS'oa'
p1615
aS'spss'
p1616
aS'home networking'
p1617
aS'database server'
p1618
aS'carrier'
p1619
aS'dfx'
p1620
aS'access layer'
p1621
aS'act'
p1622
aS'project plan'
p1623
aS'nds'
p1624
aS'ot'
p1625
aS'backup'
p1626
aS'processor'
p1627
aS'op'
p1628
aS'outlook'
p1629
aS'netapp storage'
p1630
aS'browser compatibility'
p1631
aS'enterprise application'
p1632
aS'orm'
p1633
aS'trouble ticket'
p1634
aS'operator'
p1635
aS'vp'
p1636
aS'range'
p1637
aS'igmp'
p1638
aS'log shipping'
p1639
aS'w3c'
p1640
aS'ehr'
p1641
aS'ad hoc testing'
p1642
aS'snmp'
p1643
aS'json'
p1644
aS'owasp'
p1645
aS'los'
p1646
aS'core network'
p1647
aS'ipv4'
p1648
aS'ipv6'
p1649
aS'mpls vpn'
p1650
aS'vas'
p1651
aS'server virtualization'
p1652
aS'artificial intelligence'
p1653
aS'eai'
p1654
aS'repeater'
p1655
aS'bounce rate'
p1656
aS'hr'
p1657
aS'bus'
p1658
aS'ibm pc'
p1659
aS'lnternet'
p1660
aS'application program'
p1661
aS'volume'
p1662
aS'hi'
p1663
aS'gain'
p1664
aS'oauth'
p1665
aS'methodologies'
p1666
aS'bluetooth'
p1667
aS'spice'
p1668
aS'dma'
p1669
aS'fragmentation'
p1670
aS'waste'
p1671
aS'illustrator'
p1672
aS'wafer'
p1673
aS'embedded'
p1674
aS'dml'
p1675
aS'hosting'
p1676
aS'byoc'
p1677
aS'meta'
p1678
aS'byod'
p1679
aS'chipset'
p1680
aS'tiptop'
p1681
aS'line in'
p1682
aS'ac'
p1683
aS'adas'
p1684
aS'pc game'
p1685
aS'scanner'
p1686
aS'pin'
p1687
aS'af'
p1688
aS'ai'
p1689
aS'sqoop'
p1690
aS'am'
p1691
aS'nagios'
p1692
aS'aq'
p1693
aS'objective-c'
p1694
aS'ar'
p1695
aS'file'
p1696
aS'adsl'
p1697
aS'wwan'
p1698
aS'digital signal processing'
p1699
aS'cmos'
p1700
aS'hld'
p1701
aS'application software'
p1702
aS'antenna'
p1703
aS'calibration'
p1704
aS'drivers'
p1705
aS'event'
p1706
aS'field'
p1707
aS'hpc'
p1708
aS'network video recorder'
p1709
aS'riak'
p1710
aS'openid'
p1711
aS'amoled'
p1712
aS'connected devices'
p1713
aS'a+'
p1714
aS'includes'
p1715
aS'ansi'
p1716
aS'web browser'
p1717
aS'dropbox'
p1718
aS'ghost'
p1719
aS'cpl'
p1720
aS'sass'
p1721
aS'command line'
p1722
aS'silicon valley'
p1723
aS'cpc'
p1724
aS'cpe'
p1725
aS'c++.net'
p1726
aS'interaction design'
p1727
aS'product manager'
p1728
aS'storage management'
p1729
aS'validation'
p1730
aS'resolution'
p1731
aS'cpu'
p1732
aS'hmi'
p1733
atRp1734
.