c__builtin__
set
p1
((lp2
S'r'
aS'.net'
p3
aS'app'
p4
aS'visual c++'
p5
aS'visual basic .net'
p6
aS'unix'
p7
aS'linux'
p8
aS'ic'
p9
aS'vmware'
p10
aS'xml'
p11
aS'git'
p12
aS'java'
p13
aS'asp.net'
p14
aS'delphi'
p15
aS'struts'
p16
aS'perl'
p17
aS'python'
p18
aS'html'
p19
aS'uml'
p20
aS'android'
p21
aS'css'
p22
aS'shell'
p23
aS'windows nt'
p24
aS'c#'
p25
aS'javascript'
p26
aS'ios'
p27
aS'j2ee'
p28
aS'ajax'
p29
aS'jsp'
p30
aS'c#.net'
p31
aS'sql'
p32
aS'mcu'
p33
aS'php'
p34
aS'ruby'
p35
aS'jquery'
p36
aS'c'
aS'dhtml'
p37
aS'embedded'
p38
aS'sql server'
p39
aS'mysql'
p40
aS'vb.net'
p41
aS'visual studio .net'
p42
aS'objective-c'
p43
aS'c++'
p44
aS'mvc'
p45
aS'ui'
p46
aS'tomcat'
p47
aS'visual basic'
p48
aS'html5'
p49
atRp50
.