c__builtin__
set
p1
((lp2
S'tcp ip'
p3
aS'.net'
p4
aS'windows xp'
p5
aS'api'
p6
aS'ip'
p7
aS'is'
p8
aS'visual c++'
p9
aS'outlook'
p10
aS'unix'
p11
aS'visual studio'
p12
aS'zzw3'
p13
aS'in'
p14
aS'xp'
p15
aS'vmware'
p16
aS'xml'
p17
aS'web'
p18
aS'java'
p19
aS'asp.net'
p20
aS'excel'
p21
aS'mysql'
p22
aS'c#.net'
p23
aS'c#'
p24
aS'html'
p25
aS'basic'
p26
aS'mis'
p27
aS'app'
p28
aS'css'
p29
aS'android'
p30
aS'development'
p31
aS'asp'
p32
aS'python'
p33
aS'windows server'
p34
aS'javascript'
p35
aS'ios'
p36
aS'linux'
p37
aS'ajax'
p38
aS'jsp'
p39
aS'sql'
p40
aS'php'
p41
aS'data'
p42
aS'mobileweb'
p43
aS'jquery'
p44
aS'c'
aS'erp'
p45
aS'embedded'
p46
aS'sql server'
p47
aS'windows'
p48
aS'java script'
p49
aS'database'
p50
aS'programming'
p51
aS'c++'
p52
aS'server'
p53
aS'mobile'
p54
aS'mvc'
p55
aS'ms'
p56
aS'oracle'
p57
aS'visual basic'
p58
aS'powerpoint'
p59
aS'software'
p60
atRp61
.p61
aS'sql server'
p62
aS'windows'
p63
aS'vb.net'
p64
aS'java script'
p65
aS'database'
p66
aS'programming'
p67
aS'c++'
p68
aS'server'
p69
aS'mobile'
p70
aS'mvc'
p71
aS'ui'
p72
aS'ms'
p73
aS'oracle'
p74
aS'security'
p75
aS'microsoft'
p76
aS'software'
p77
atRp78
.