c__builtin__
set
p1
((lp2
S'zigbee'
p3
aS'app'
p4
aS'linux'
p5
aS'unix'
p6
aS'mysql'
p7
aS'xml'
p8
aS'java'
p9
aS'asp.net'
p10
aS'c#.net'
p11
aS'visual c++'
p12
aS'c#'
p13
aS'html'
p14
aS'android'
p15
aS'css'
p16
aS'asp'
p17
aS'python'
p18
aS'javascript'
p19
aS'ios'
p20
aS'ajax'
p21
aS'jsp'
p22
aS'sql'
p23
aS'php'
p24
aS'jquery'
p25
aS'c'
aS'java script'
p26
aS'.net'
p27
aS'programming'
p28
aS'c++'
p29
aS'visual basic'
p30
atRp31
.