c__builtin__
set
p1
((lp2
S'jquery'
p3
aS'visual c++'
p4
aS'sql'
p5
aS'c#'
p6
aS'app'
p7
aS'mysql'
p8
aS'ios'
p9
aS'unix'
p10
aS'jsp'
p11
aS'linux'
p12
aS'php'
p13
aS'visual basic'
p14
aS'objective-c'
p15
aS'xml'
p16
aS'c'
aS'java'
p17
aS'asp.net'
p18
aS'.net'
p19
aS'ajax'
p20
aS'c++'
p21
aS'c#.net'
p22
aS'python'
p23
aS'html'
p24
aS'javascript'
p25
aS'android'
p26
aS'css'
p27
atRp28
.