c__builtin__
set
p1
((lp2
S'photoshop'
p3
aS'mfc'
p4
aS'solaris'
p5
aS'nosql'
p6
aS'windows xp'
p7
aS'dba'
p8
aS'visual c++'
p9
aS'visual studio'
p10
aS'mysql'
p11
aS'bug tracking'
p12
aS'xml'
p13
aS'autocad'
p14
aS'big data'
p15
aS'matlab'
p16
aS'pcb'
p17
aS'python'
p18
aS'windows server'
p19
aS'uml'
p20
aS'db2'
p21
aS'servlet'
p22
aS'dhtml'
p23
aS'.net'
p24
aS'c++'
p25
aS'qa'
p26
aS'security'
p27
aS'kernel'
p28
aS'tcp ip'
p29
aS'cisco'
p30
aS'asp'
p31
aS'arm'
p32
aS'vmware'
p33
aS'delphi'
p34
aS'shell script'
p35
aS'android app'
p36
aS'access'
p37
aS'web services'
p38
aS'mac os'
p39
aS'dhcp'
p40
aS'hibernate'
p41
aS'windows nt'
p42
aS'ios'
p43
aS'javascript'
p44
aS'bi'
p45
aS'ajax'
p46
aS'plc'
p47
aS'html5'
p48
aS'mes'
p49
aS'embedded system'
p50
aS'vba'
p51
aS'postgresql'
p52
aS'socket'
p53
aS'vb.net'
p54
aS'java script'
p55
aS'programming'
p56
aS'mvc'
p57
aS'etl'
p58
aS'outlook'
p59
aS'firewall'
p60
aS'app'
p61
aS'pos'
p62
aS'unix'
p63
aS'troubleshooting'
p64
aS'zzw3'
p65
aS'linux'
p66
aS'quality'
p67
aS'cloud'
p68
aS'git'
p69
aS'java'
p70
aS'vbscript'
p71
aS'struts'
p72
aS'perl'
p73
aS'bios'
p74
aS'json'
p75
aS'dns'
p76
aS'visio'
p77
aS'shell'
p78
aS'dreamweaver'
p79
aS'iis'
p80
aS'c#'
p81
aS'c'
aS'oop'
p82
aS'visual basic'
p83
aS'mcu'
p84
aS'vpn'
p85
aS'ruby'
p86
aS'project management'
p87
aS'jquery'
p88
aS'erp'
p89
aS'ux'
p90
aS'embedded'
p91
aS'labview'
p92
aS'r'
aS'ui'
p93
aS'tiptop'
p94
aS'usability'
p95
aS'debugging'
p96
aS'ad'
p97
aS'visual basic .net'
p98
aS'ic'
p99
aS'sap'
p100
aS'mssql'
p101
aS'asp.net'
p102
aS'firmware'
p103
aS'hadoop'
p104
aS'c#.net'
p105
aS'html'
p106
aS'ccna'
p107
aS'android'
p108
aS'mcse'
p109
aS'css'
p110
aS'j2ee'
p111
aS'vlan'
p112
aS'aws'
p113
aS'automation'
p114
aS'jsp'
p115
aS'sql'
p116
aS'php'
p117
aS'tracking'
p118
aS'tomcat'
p119
aS'sql server'
p120
aS'visual studio .net'
p121
aS'c++.net'
p122
aS'ooad'
p123
aS'oracle'
p124
aS'cpu'
p125
atRp126
.